Archive member included to satisfy reference by file (symbol)

c:/msys64/opt/devkitpro/devkitppc/bin/../lib/gcc/powerpc-eabi/10.2.0/../../../../powerpc-eabi/lib\libc.a(lib_a-memcpy.o)
                              iosu_kernel.o (memcpy)
c:/msys64/opt/devkitpro/devkitppc/bin/../lib/gcc/powerpc-eabi/10.2.0/../../../../powerpc-eabi/lib\libc.a(lib_a-memset.o)
                              iosu_kernel.o (memset)
c:/msys64/opt/devkitpro/devkitppc/bin/../lib/gcc/powerpc-eabi/10.2.0/../../../../powerpc-eabi/lib\libc.a(lib_a-strlen.o)
                              debugger.o (strlen)
c:/msys64/opt/devkitpro/devkitppc/bin/../lib/gcc/powerpc-eabi/10.2.0/../../../../powerpc-eabi/lib\libc.a(lib_a-vsnprintf.o)
                              debugger.o (vsnprintf)
c:/msys64/opt/devkitpro/devkitppc/bin/../lib/gcc/powerpc-eabi/10.2.0/../../../../powerpc-eabi/lib\libc.a(lib_a-impure.o)
                              c:/msys64/opt/devkitpro/devkitppc/bin/../lib/gcc/powerpc-eabi/10.2.0/../../../../powerpc-eabi/lib\libc.a(lib_a-vsnprintf.o) (_impure_ptr)
c:/msys64/opt/devkitpro/devkitppc/bin/../lib/gcc/powerpc-eabi/10.2.0/../../../../powerpc-eabi/lib\libc.a(lib_a-svfprintf.o)
                              c:/msys64/opt/devkitpro/devkitppc/bin/../lib/gcc/powerpc-eabi/10.2.0/../../../../powerpc-eabi/lib\libc.a(lib_a-vsnprintf.o) (_svfprintf_r)
c:/msys64/opt/devkitpro/devkitppc/bin/../lib/gcc/powerpc-eabi/10.2.0/../../../../powerpc-eabi/lib\libc.a(lib_a-wcrtomb.o)
                              c:/msys64/opt/devkitpro/devkitppc/bin/../lib/gcc/powerpc-eabi/10.2.0/../../../../powerpc-eabi/lib\libc.a(lib_a-svfprintf.o) (_wcrtomb_r)
c:/msys64/opt/devkitpro/devkitppc/bin/../lib/gcc/powerpc-eabi/10.2.0/../../../../powerpc-eabi/lib\libc.a(lib_a-wcsrtombs.o)
                              c:/msys64/opt/devkitpro/devkitppc/bin/../lib/gcc/powerpc-eabi/10.2.0/../../../../powerpc-eabi/lib\libc.a(lib_a-svfprintf.o) (_wcsrtombs_r)
c:/msys64/opt/devkitpro/devkitppc/bin/../lib/gcc/powerpc-eabi/10.2.0/../../../../powerpc-eabi/lib\libc.a(lib_a-dtoa.o)
                              c:/msys64/opt/devkitpro/devkitppc/bin/../lib/gcc/powerpc-eabi/10.2.0/../../../../powerpc-eabi/lib\libc.a(lib_a-svfprintf.o) (_dtoa_r)
c:/msys64/opt/devkitpro/devkitppc/bin/../lib/gcc/powerpc-eabi/10.2.0/../../../../powerpc-eabi/lib\libc.a(lib_a-freer.o)
                              c:/msys64/opt/devkitpro/devkitppc/bin/../lib/gcc/powerpc-eabi/10.2.0/../../../../powerpc-eabi/lib\libc.a(lib_a-svfprintf.o) (_free_r)
c:/msys64/opt/devkitpro/devkitppc/bin/../lib/gcc/powerpc-eabi/10.2.0/../../../../powerpc-eabi/lib\libc.a(lib_a-localeconv.o)
                              c:/msys64/opt/devkitpro/devkitppc/bin/../lib/gcc/powerpc-eabi/10.2.0/../../../../powerpc-eabi/lib\libc.a(lib_a-svfprintf.o) (_localeconv_r)
c:/msys64/opt/devkitpro/devkitppc/bin/../lib/gcc/powerpc-eabi/10.2.0/../../../../powerpc-eabi/lib\libc.a(lib_a-locale.o)
                              c:/msys64/opt/devkitpro/devkitppc/bin/../lib/gcc/powerpc-eabi/10.2.0/../../../../powerpc-eabi/lib\libc.a(lib_a-svfprintf.o) (__locale_mb_cur_max)
c:/msys64/opt/devkitpro/devkitppc/bin/../lib/gcc/powerpc-eabi/10.2.0/../../../../powerpc-eabi/lib\libc.a(lib_a-mallocr.o)
                              c:/msys64/opt/devkitpro/devkitppc/bin/../lib/gcc/powerpc-eabi/10.2.0/../../../../powerpc-eabi/lib\libc.a(lib_a-svfprintf.o) (_malloc_r)
c:/msys64/opt/devkitpro/devkitppc/bin/../lib/gcc/powerpc-eabi/10.2.0/../../../../powerpc-eabi/lib\libc.a(lib_a-mbtowc_r.o)
                              c:/msys64/opt/devkitpro/devkitppc/bin/../lib/gcc/powerpc-eabi/10.2.0/../../../../powerpc-eabi/lib\libc.a(lib_a-locale.o) (__ascii_mbtowc)
c:/msys64/opt/devkitpro/devkitppc/bin/../lib/gcc/powerpc-eabi/10.2.0/../../../../powerpc-eabi/lib\libc.a(lib_a-memchr.o)
                              c:/msys64/opt/devkitpro/devkitppc/bin/../lib/gcc/powerpc-eabi/10.2.0/../../../../powerpc-eabi/lib\libc.a(lib_a-svfprintf.o) (memchr)
c:/msys64/opt/devkitpro/devkitppc/bin/../lib/gcc/powerpc-eabi/10.2.0/../../../../powerpc-eabi/lib\libc.a(lib_a-mprec.o)
                              c:/msys64/opt/devkitpro/devkitppc/bin/../lib/gcc/powerpc-eabi/10.2.0/../../../../powerpc-eabi/lib\libc.a(lib_a-dtoa.o) (_Balloc)
c:/msys64/opt/devkitpro/devkitppc/bin/../lib/gcc/powerpc-eabi/10.2.0/../../../../powerpc-eabi/lib\libc.a(lib_a-strcasecmp.o)
                              c:/msys64/opt/devkitpro/devkitppc/bin/../lib/gcc/powerpc-eabi/10.2.0/../../../../powerpc-eabi/lib\libc.a(lib_a-locale.o) (strcasecmp)
c:/msys64/opt/devkitpro/devkitppc/bin/../lib/gcc/powerpc-eabi/10.2.0/../../../../powerpc-eabi/lib\libc.a(lib_a-strcat.o)
                              c:/msys64/opt/devkitpro/devkitppc/bin/../lib/gcc/powerpc-eabi/10.2.0/../../../../powerpc-eabi/lib\libc.a(lib_a-locale.o) (strcat)
c:/msys64/opt/devkitpro/devkitppc/bin/../lib/gcc/powerpc-eabi/10.2.0/../../../../powerpc-eabi/lib\libc.a(lib_a-strchr.o)
                              c:/msys64/opt/devkitpro/devkitppc/bin/../lib/gcc/powerpc-eabi/10.2.0/../../../../powerpc-eabi/lib\libc.a(lib_a-locale.o) (strchr)
c:/msys64/opt/devkitpro/devkitppc/bin/../lib/gcc/powerpc-eabi/10.2.0/../../../../powerpc-eabi/lib\libc.a(lib_a-strcmp.o)
                              c:/msys64/opt/devkitpro/devkitppc/bin/../lib/gcc/powerpc-eabi/10.2.0/../../../../powerpc-eabi/lib\libc.a(lib_a-locale.o) (strcmp)
c:/msys64/opt/devkitpro/devkitppc/bin/../lib/gcc/powerpc-eabi/10.2.0/../../../../powerpc-eabi/lib\libc.a(lib_a-strcpy.o)
                              c:/msys64/opt/devkitpro/devkitppc/bin/../lib/gcc/powerpc-eabi/10.2.0/../../../../powerpc-eabi/lib\libc.a(lib_a-locale.o) (strcpy)
c:/msys64/opt/devkitpro/devkitppc/bin/../lib/gcc/powerpc-eabi/10.2.0/../../../../powerpc-eabi/lib\libc.a(lib_a-strlcpy.o)
                              c:/msys64/opt/devkitpro/devkitppc/bin/../lib/gcc/powerpc-eabi/10.2.0/../../../../powerpc-eabi/lib\libc.a(lib_a-locale.o) (strlcpy)
c:/msys64/opt/devkitpro/devkitppc/bin/../lib/gcc/powerpc-eabi/10.2.0/../../../../powerpc-eabi/lib\libc.a(lib_a-strncasecmp.o)
                              c:/msys64/opt/devkitpro/devkitppc/bin/../lib/gcc/powerpc-eabi/10.2.0/../../../../powerpc-eabi/lib\libc.a(lib_a-locale.o) (strncasecmp)
c:/msys64/opt/devkitpro/devkitppc/bin/../lib/gcc/powerpc-eabi/10.2.0/../../../../powerpc-eabi/lib\libc.a(lib_a-strncmp.o)
                              c:/msys64/opt/devkitpro/devkitppc/bin/../lib/gcc/powerpc-eabi/10.2.0/../../../../powerpc-eabi/lib\libc.a(lib_a-locale.o) (strncmp)
c:/msys64/opt/devkitpro/devkitppc/bin/../lib/gcc/powerpc-eabi/10.2.0/../../../../powerpc-eabi/lib\libc.a(lib_a-strncpy.o)
                              c:/msys64/opt/devkitpro/devkitppc/bin/../lib/gcc/powerpc-eabi/10.2.0/../../../../powerpc-eabi/lib\libc.a(lib_a-locale.o) (strncpy)
c:/msys64/opt/devkitpro/devkitppc/bin/../lib/gcc/powerpc-eabi/10.2.0/../../../../powerpc-eabi/lib\libc.a(lib_a-strtol.o)
                              c:/msys64/opt/devkitpro/devkitppc/bin/../lib/gcc/powerpc-eabi/10.2.0/../../../../powerpc-eabi/lib\libc.a(lib_a-locale.o) (strtol)
c:/msys64/opt/devkitpro/devkitppc/bin/../lib/gcc/powerpc-eabi/10.2.0/../../../../powerpc-eabi/lib\libc.a(lib_a-svfiprintf.o)
                              c:/msys64/opt/devkitpro/devkitppc/bin/../lib/gcc/powerpc-eabi/10.2.0/../../../../powerpc-eabi/lib\libc.a(lib_a-svfprintf.o) (__ssprint_r)
c:/msys64/opt/devkitpro/devkitppc/bin/../lib/gcc/powerpc-eabi/10.2.0/../../../../powerpc-eabi/lib\libc.a(lib_a-wcsnrtombs.o)
                              c:/msys64/opt/devkitpro/devkitppc/bin/../lib/gcc/powerpc-eabi/10.2.0/../../../../powerpc-eabi/lib\libc.a(lib_a-wcsrtombs.o) (_wcsnrtombs_r)
c:/msys64/opt/devkitpro/devkitppc/bin/../lib/gcc/powerpc-eabi/10.2.0/../../../../powerpc-eabi/lib\libc.a(lib_a-wctomb_r.o)
                              c:/msys64/opt/devkitpro/devkitppc/bin/../lib/gcc/powerpc-eabi/10.2.0/../../../../powerpc-eabi/lib\libc.a(lib_a-locale.o) (__ascii_wctomb)
c:/msys64/opt/devkitpro/devkitppc/bin/../lib/gcc/powerpc-eabi/10.2.0/../../../../powerpc-eabi/lib\libc.a(lib_a-assert.o)
                              c:/msys64/opt/devkitpro/devkitppc/bin/../lib/gcc/powerpc-eabi/10.2.0/../../../../powerpc-eabi/lib\libc.a(lib_a-dtoa.o) (__assert_func)
c:/msys64/opt/devkitpro/devkitppc/bin/../lib/gcc/powerpc-eabi/10.2.0/../../../../powerpc-eabi/lib\libc.a(lib_a-callocr.o)
                              c:/msys64/opt/devkitpro/devkitppc/bin/../lib/gcc/powerpc-eabi/10.2.0/../../../../powerpc-eabi/lib\libc.a(lib_a-mprec.o) (_calloc_r)
c:/msys64/opt/devkitpro/devkitppc/bin/../lib/gcc/powerpc-eabi/10.2.0/../../../../powerpc-eabi/lib\libc.a(lib_a-ctype_.o)
                              c:/msys64/opt/devkitpro/devkitppc/bin/../lib/gcc/powerpc-eabi/10.2.0/../../../../powerpc-eabi/lib\libc.a(lib_a-locale.o) (__set_ctype)
c:/msys64/opt/devkitpro/devkitppc/bin/../lib/gcc/powerpc-eabi/10.2.0/../../../../powerpc-eabi/lib\libc.a(lib_a-errno.o)
                              c:/msys64/opt/devkitpro/devkitppc/bin/../lib/gcc/powerpc-eabi/10.2.0/../../../../powerpc-eabi/lib\libc.a(lib_a-strtol.o) (__errno)
c:/msys64/opt/devkitpro/devkitppc/bin/../lib/gcc/powerpc-eabi/10.2.0/../../../../powerpc-eabi/lib\libc.a(lib_a-fiprintf.o)
                              c:/msys64/opt/devkitpro/devkitppc/bin/../lib/gcc/powerpc-eabi/10.2.0/../../../../powerpc-eabi/lib\libc.a(lib_a-assert.o) (fiprintf)
c:/msys64/opt/devkitpro/devkitppc/bin/../lib/gcc/powerpc-eabi/10.2.0/../../../../powerpc-eabi/lib\libc.a(lib_a-getenv_r.o)
                              c:/msys64/opt/devkitpro/devkitppc/bin/../lib/gcc/powerpc-eabi/10.2.0/../../../../powerpc-eabi/lib\libc.a(lib_a-locale.o) (_getenv_r)
c:/msys64/opt/devkitpro/devkitppc/bin/../lib/gcc/powerpc-eabi/10.2.0/../../../../powerpc-eabi/lib\libc.a(lib_a-memmove.o)
                              c:/msys64/opt/devkitpro/devkitppc/bin/../lib/gcc/powerpc-eabi/10.2.0/../../../../powerpc-eabi/lib\libc.a(lib_a-svfiprintf.o) (memmove)
c:/msys64/opt/devkitpro/devkitppc/bin/../lib/gcc/powerpc-eabi/10.2.0/../../../../powerpc-eabi/lib\libc.a(lib_a-reallocr.o)
                              c:/msys64/opt/devkitpro/devkitppc/bin/../lib/gcc/powerpc-eabi/10.2.0/../../../../powerpc-eabi/lib\libc.a(lib_a-svfiprintf.o) (_realloc_r)
c:/msys64/opt/devkitpro/devkitppc/bin/../lib/gcc/powerpc-eabi/10.2.0/../../../../powerpc-eabi/lib\libc.a(lib_a-vfiprintf.o)
                              c:/msys64/opt/devkitpro/devkitppc/bin/../lib/gcc/powerpc-eabi/10.2.0/../../../../powerpc-eabi/lib\libc.a(lib_a-fiprintf.o) (_vfiprintf_r)
c:/msys64/opt/devkitpro/devkitppc/bin/../lib/gcc/powerpc-eabi/10.2.0/../../../../powerpc-eabi/lib\libc.a(lib_a-wsetup.o)
                              c:/msys64/opt/devkitpro/devkitppc/bin/../lib/gcc/powerpc-eabi/10.2.0/../../../../powerpc-eabi/lib\libc.a(lib_a-vfiprintf.o) (__swsetup_r)
c:/msys64/opt/devkitpro/devkitppc/bin/../lib/gcc/powerpc-eabi/10.2.0/../../../../powerpc-eabi/lib\libc.a(lib_a-abort.o)
                              c:/msys64/opt/devkitpro/devkitppc/bin/../lib/gcc/powerpc-eabi/10.2.0/../../../../powerpc-eabi/lib\libc.a(lib_a-assert.o) (abort)
c:/msys64/opt/devkitpro/devkitppc/bin/../lib/gcc/powerpc-eabi/10.2.0/../../../../powerpc-eabi/lib\libc.a(lib_a-environ.o)
                              c:/msys64/opt/devkitpro/devkitppc/bin/../lib/gcc/powerpc-eabi/10.2.0/../../../../powerpc-eabi/lib\libc.a(lib_a-getenv_r.o) (environ)
c:/msys64/opt/devkitpro/devkitppc/bin/../lib/gcc/powerpc-eabi/10.2.0/../../../../powerpc-eabi/lib\libc.a(lib_a-envlock.o)
                              c:/msys64/opt/devkitpro/devkitppc/bin/../lib/gcc/powerpc-eabi/10.2.0/../../../../powerpc-eabi/lib\libc.a(lib_a-getenv_r.o) (__env_lock)
c:/msys64/opt/devkitpro/devkitppc/bin/../lib/gcc/powerpc-eabi/10.2.0/../../../../powerpc-eabi/lib\libc.a(lib_a-fflush.o)
                              c:/msys64/opt/devkitpro/devkitppc/bin/../lib/gcc/powerpc-eabi/10.2.0/../../../../powerpc-eabi/lib\libc.a(lib_a-vfiprintf.o) (_fflush_r)
c:/msys64/opt/devkitpro/devkitppc/bin/../lib/gcc/powerpc-eabi/10.2.0/../../../../powerpc-eabi/lib\libc.a(lib_a-findfp.o)
                              c:/msys64/opt/devkitpro/devkitppc/bin/../lib/gcc/powerpc-eabi/10.2.0/../../../../powerpc-eabi/lib\libc.a(lib_a-vfiprintf.o) (__sinit)
c:/msys64/opt/devkitpro/devkitppc/bin/../lib/gcc/powerpc-eabi/10.2.0/../../../../powerpc-eabi/lib\libc.a(lib_a-fputwc.o)
                              c:/msys64/opt/devkitpro/devkitppc/bin/../lib/gcc/powerpc-eabi/10.2.0/../../../../powerpc-eabi/lib\libc.a(lib_a-vfiprintf.o) (_fputwc_r)
c:/msys64/opt/devkitpro/devkitppc/bin/../lib/gcc/powerpc-eabi/10.2.0/../../../../powerpc-eabi/lib\libc.a(lib_a-fvwrite.o)
                              c:/msys64/opt/devkitpro/devkitppc/bin/../lib/gcc/powerpc-eabi/10.2.0/../../../../powerpc-eabi/lib\libc.a(lib_a-vfiprintf.o) (__sfvwrite_r)
c:/msys64/opt/devkitpro/devkitppc/bin/../lib/gcc/powerpc-eabi/10.2.0/../../../../powerpc-eabi/lib\libc.a(lib_a-fwalk.o)
                              c:/msys64/opt/devkitpro/devkitppc/bin/../lib/gcc/powerpc-eabi/10.2.0/../../../../powerpc-eabi/lib\libc.a(lib_a-findfp.o) (_fwalk)
c:/msys64/opt/devkitpro/devkitppc/bin/../lib/gcc/powerpc-eabi/10.2.0/../../../../powerpc-eabi/lib\libc.a(lib_a-makebuf.o)
                              c:/msys64/opt/devkitpro/devkitppc/bin/../lib/gcc/powerpc-eabi/10.2.0/../../../../powerpc-eabi/lib\libc.a(lib_a-wsetup.o) (__smakebuf_r)
c:/msys64/opt/devkitpro/devkitppc/bin/../lib/gcc/powerpc-eabi/10.2.0/../../../../powerpc-eabi/lib\libc.a(lib_a-signal.o)
                              c:/msys64/opt/devkitpro/devkitppc/bin/../lib/gcc/powerpc-eabi/10.2.0/../../../../powerpc-eabi/lib\libc.a(lib_a-abort.o) (raise)
c:/msys64/opt/devkitpro/devkitppc/bin/../lib/gcc/powerpc-eabi/10.2.0/../../../../powerpc-eabi/lib\libc.a(lib_a-stdio.o)
                              c:/msys64/opt/devkitpro/devkitppc/bin/../lib/gcc/powerpc-eabi/10.2.0/../../../../powerpc-eabi/lib\libc.a(lib_a-findfp.o) (__sread)
c:/msys64/opt/devkitpro/devkitppc/bin/../lib/gcc/powerpc-eabi/10.2.0/../../../../powerpc-eabi/lib\libc.a(lib_a-wbuf.o)
                              c:/msys64/opt/devkitpro/devkitppc/bin/../lib/gcc/powerpc-eabi/10.2.0/../../../../powerpc-eabi/lib\libc.a(lib_a-fputwc.o) (__swbuf_r)
c:/msys64/opt/devkitpro/devkitppc/bin/../lib/gcc/powerpc-eabi/10.2.0/../../../../powerpc-eabi/lib\libc.a(lib_a-fclose.o)
                              c:/msys64/opt/devkitpro/devkitppc/bin/../lib/gcc/powerpc-eabi/10.2.0/../../../../powerpc-eabi/lib\libc.a(lib_a-findfp.o) (_fclose_r)
c:/msys64/opt/devkitpro/devkitppc/bin/../lib/gcc/powerpc-eabi/10.2.0/../../../../powerpc-eabi/lib\libsysbase.a(close.o)
                              c:/msys64/opt/devkitpro/devkitppc/bin/../lib/gcc/powerpc-eabi/10.2.0/../../../../powerpc-eabi/lib\libc.a(lib_a-stdio.o) (_close_r)
c:/msys64/opt/devkitpro/devkitppc/bin/../lib/gcc/powerpc-eabi/10.2.0/../../../../powerpc-eabi/lib\libsysbase.a(fstat.o)
                              c:/msys64/opt/devkitpro/devkitppc/bin/../lib/gcc/powerpc-eabi/10.2.0/../../../../powerpc-eabi/lib\libc.a(lib_a-makebuf.o) (_fstat_r)
c:/msys64/opt/devkitpro/devkitppc/bin/../lib/gcc/powerpc-eabi/10.2.0/../../../../powerpc-eabi/lib\libsysbase.a(getpid.o)
                              c:/msys64/opt/devkitpro/devkitppc/bin/../lib/gcc/powerpc-eabi/10.2.0/../../../../powerpc-eabi/lib\libc.a(lib_a-signal.o) (_getpid_r)
c:/msys64/opt/devkitpro/devkitppc/bin/../lib/gcc/powerpc-eabi/10.2.0/../../../../powerpc-eabi/lib\libsysbase.a(isatty.o)
                              c:/msys64/opt/devkitpro/devkitppc/bin/../lib/gcc/powerpc-eabi/10.2.0/../../../../powerpc-eabi/lib\libc.a(lib_a-makebuf.o) (_isatty_r)
c:/msys64/opt/devkitpro/devkitppc/bin/../lib/gcc/powerpc-eabi/10.2.0/../../../../powerpc-eabi/lib\libsysbase.a(kill.o)
                              c:/msys64/opt/devkitpro/devkitppc/bin/../lib/gcc/powerpc-eabi/10.2.0/../../../../powerpc-eabi/lib\libc.a(lib_a-signal.o) (_kill_r)
c:/msys64/opt/devkitpro/devkitppc/bin/../lib/gcc/powerpc-eabi/10.2.0/../../../../powerpc-eabi/lib\libsysbase.a(lseek.o)
                              c:/msys64/opt/devkitpro/devkitppc/bin/../lib/gcc/powerpc-eabi/10.2.0/../../../../powerpc-eabi/lib\libc.a(lib_a-stdio.o) (_lseek_r)
c:/msys64/opt/devkitpro/devkitppc/bin/../lib/gcc/powerpc-eabi/10.2.0/../../../../powerpc-eabi/lib\libsysbase.a(read.o)
                              c:/msys64/opt/devkitpro/devkitppc/bin/../lib/gcc/powerpc-eabi/10.2.0/../../../../powerpc-eabi/lib\libc.a(lib_a-stdio.o) (_read_r)
c:/msys64/opt/devkitpro/devkitppc/bin/../lib/gcc/powerpc-eabi/10.2.0/../../../../powerpc-eabi/lib\libsysbase.a(sbrk.o)
                              c:/msys64/opt/devkitpro/devkitppc/bin/../lib/gcc/powerpc-eabi/10.2.0/../../../../powerpc-eabi/lib\libc.a(lib_a-freer.o) (_sbrk_r)
c:/msys64/opt/devkitpro/devkitppc/bin/../lib/gcc/powerpc-eabi/10.2.0/../../../../powerpc-eabi/lib\libsysbase.a(write.o)
                              c:/msys64/opt/devkitpro/devkitppc/bin/../lib/gcc/powerpc-eabi/10.2.0/../../../../powerpc-eabi/lib\libc.a(lib_a-stdio.o) (_write_r)
c:/msys64/opt/devkitpro/devkitppc/bin/../lib/gcc/powerpc-eabi/10.2.0/../../../../powerpc-eabi/lib\libsysbase.a(_exit.o)
                              c:/msys64/opt/devkitpro/devkitppc/bin/../lib/gcc/powerpc-eabi/10.2.0/../../../../powerpc-eabi/lib\libc.a(lib_a-abort.o) (_exit)
c:/msys64/opt/devkitpro/devkitppc/bin/../lib/gcc/powerpc-eabi/10.2.0/../../../../powerpc-eabi/lib\libsysbase.a(flock.o)
                              c:/msys64/opt/devkitpro/devkitppc/bin/../lib/gcc/powerpc-eabi/10.2.0/../../../../powerpc-eabi/lib\libc.a(lib_a-vfiprintf.o) (__flockfile)
c:/msys64/opt/devkitpro/devkitppc/bin/../lib/gcc/powerpc-eabi/10.2.0/../../../../powerpc-eabi/lib\libsysbase.a(handle_manager.o)
                              c:/msys64/opt/devkitpro/devkitppc/bin/../lib/gcc/powerpc-eabi/10.2.0/../../../../powerpc-eabi/lib\libsysbase.a(close.o) (__release_handle)
c:/msys64/opt/devkitpro/devkitppc/bin/../lib/gcc/powerpc-eabi/10.2.0/../../../../powerpc-eabi/lib\libsysbase.a(syscall_support.o)
                              c:/msys64/opt/devkitpro/devkitppc/bin/../lib/gcc/powerpc-eabi/10.2.0/../../../../powerpc-eabi/lib\libc.a(lib_a-vfiprintf.o) (__libc_lock_init)
c:/msys64/opt/devkitpro/devkitppc/bin/../lib/gcc/powerpc-eabi/10.2.0/../../../../powerpc-eabi/lib\libsysbase.a(iosupport.o)
                              c:/msys64/opt/devkitpro/devkitppc/bin/../lib/gcc/powerpc-eabi/10.2.0/../../../../powerpc-eabi/lib\libsysbase.a(close.o) (devoptab_list)
c:/msys64/opt/devkitpro/devkitppc/bin/../lib/gcc/powerpc-eabi/10.2.0\libgcc.a(_udivdi3.o)
                              c:/msys64/opt/devkitpro/devkitppc/bin/../lib/gcc/powerpc-eabi/10.2.0/../../../../powerpc-eabi/lib\libc.a(lib_a-svfprintf.o) (__udivdi3)
c:/msys64/opt/devkitpro/devkitppc/bin/../lib/gcc/powerpc-eabi/10.2.0\libgcc.a(_umoddi3.o)
                              c:/msys64/opt/devkitpro/devkitppc/bin/../lib/gcc/powerpc-eabi/10.2.0/../../../../powerpc-eabi/lib\libc.a(lib_a-svfprintf.o) (__umoddi3)

Discarded input sections

 .text          0x0000000000000000        0x0 entry.o
 .data          0x0000000000000000        0x0 entry.o
 .bss           0x0000000000000000        0x0 entry.o
 .comment       0x0000000000000000       0x24 entry.o
 .eh_frame      0x0000000000000000       0x34 entry.o
 .text          0x0000000000000000        0x0 debugger.o
 .data          0x0000000000000000        0x0 debugger.o
 .bss           0x0000000000000000        0x0 debugger.o
 .sdata._BLUE   0x0000000000000000        0x4 debugger.o
 .sdata._BOLD   0x0000000000000000        0x4 debugger.o
 .sdata._CYAN   0x0000000000000000        0x4 debugger.o
 .sdata._GREY   0x0000000000000000        0x4 debugger.o
 .sdata._PURPLE
                0x0000000000000000        0x4 debugger.o
 .sdata._RED    0x0000000000000000        0x4 debugger.o
 .sdata._REV    0x0000000000000000        0x4 debugger.o
 .sdata._UNDER  0x0000000000000000        0x4 debugger.o
 .sdata._WHITE  0x0000000000000000        0x4 debugger.o
 .sdata._YELLOW
                0x0000000000000000        0x4 debugger.o
 .comment       0x0000000000000000       0x24 debugger.o
 .eh_frame      0x0000000000000000      0x140 debugger.o
 .gnu.attributes
                0x0000000000000000       0x10 debugger.o
 .text          0x0000000000000000        0x0 iosu_kernel.o
 .data          0x0000000000000000        0x0 iosu_kernel.o
 .bss           0x0000000000000000        0x0 iosu_kernel.o
 .comment       0x0000000000000000       0x24 iosu_kernel.o
 .eh_frame      0x0000000000000000       0x88 iosu_kernel.o
 .text          0x0000000000000000        0x0 patcher.o
 .data          0x0000000000000000        0x0 patcher.o
 .bss           0x0000000000000000        0x0 patcher.o
 .text._Z14pygecko_memcpyPhS_j.part.0
                0x0000000000000000       0x80 patcher.o
 .text._ZN4WiiU7Patcher10InitializeEv
                0x0000000000000000       0x50 patcher.o
 .text._Z14pygecko_memcpyPhS_j
                0x0000000000000000        0xc patcher.o
 .text._ZN4WiiU7Patcher7Write32EPjj
                0x0000000000000000       0x2c patcher.o
 .text._ZN4WiiU7Patcher10MemoryCopyEPvS1_i
                0x0000000000000000        0xc patcher.o
 .text._ZN4WiiU7Patcher4doBLEjj
                0x0000000000000000       0x14 patcher.o
 .text._ZN4WiiU7Patcher5doBLAEj
                0x0000000000000000       0x10 patcher.o
 .text._ZN4WiiU7Patcher10hookBranchEjPvj
                0x0000000000000000      0x190 patcher.o
 .text._ZN4WiiU7Patcher16hookBranchNoLinkEjPvj
                0x0000000000000000      0x18c patcher.o
 .text._ZN4WiiU7Patcher12hookFunctionEPvS1_jPS1_
                0x0000000000000000      0x21c patcher.o
 .text._ZN4WiiU7Patcher11removePatchEPNS0_15PatchedFunctionE
                0x0000000000000000       0x88 patcher.o
 .text.KernelCopyData
                0x0000000000000000      0x1a4 patcher.o
 .bss.hookJumps
                0x0000000000000000      0xa00 patcher.o
 .bss.memcpy_buffer
                0x0000000000000000     0x1000 patcher.o
 .sbss.pFuncList
                0x0000000000000000        0x4 patcher.o
 .comment       0x0000000000000000       0x24 patcher.o
 .eh_frame      0x0000000000000000      0x250 patcher.o
 .text          0x0000000000000000        0x0 symbols.o
 .data          0x0000000000000000        0x0 symbols.o
 .bss           0x0000000000000000        0x0 symbols.o
 .text._Z18__load_from_modulejPKcPPv
                0x0000000000000000       0x84 symbols.o
 .text.__wrap_calloc
                0x0000000000000000       0x5c symbols.o
 .text.__wrap_realloc
                0x0000000000000000       0x88 symbols.o
 .text.__wrap_aligned_alloc
                0x0000000000000000       0x28 symbols.o
 .text.__wrap_malloc_usable_size
                0x0000000000000000        0xc symbols.o
 .text.__wrap_memalign
                0x0000000000000000       0x28 symbols.o
 .text.__wrap_posix_memalign
                0x0000000000000000       0x90 symbols.o
 .text.__wrap_pvalloc
                0x0000000000000000       0x14 symbols.o
 .text.__wrap_valloc
                0x0000000000000000       0x14 symbols.o
 .sdata.memoryAllocAlign
                0x0000000000000000        0x4 symbols.o
 .comment       0x0000000000000000       0x24 symbols.o
 .eh_frame      0x0000000000000000      0x1ac symbols.o
 .text          0x0000000000000000       0x70 kernel_asm.o
 .data          0x0000000000000000        0x0 kernel_asm.o
 .bss           0x0000000000000000        0x0 kernel_asm.o
 .text          0x0000000000000000        0x0 c:/msys64/opt/devkitpro/devkitppc/bin/../lib/gcc/powerpc-eabi/10.2.0/../../../../powerpc-eabi/lib\libc.a(lib_a-memcpy.o)
 .data          0x0000000000000000        0x0 c:/msys64/opt/devkitpro/devkitppc/bin/../lib/gcc/powerpc-eabi/10.2.0/../../../../powerpc-eabi/lib\libc.a(lib_a-memcpy.o)
 .bss           0x0000000000000000        0x0 c:/msys64/opt/devkitpro/devkitppc/bin/../lib/gcc/powerpc-eabi/10.2.0/../../../../powerpc-eabi/lib\libc.a(lib_a-memcpy.o)
 .comment       0x0000000000000000       0x24 c:/msys64/opt/devkitpro/devkitppc/bin/../lib/gcc/powerpc-eabi/10.2.0/../../../../powerpc-eabi/lib\libc.a(lib_a-memcpy.o)
 .eh_frame      0x0000000000000000       0x28 c:/msys64/opt/devkitpro/devkitppc/bin/../lib/gcc/powerpc-eabi/10.2.0/../../../../powerpc-eabi/lib\libc.a(lib_a-memcpy.o)
 .text          0x0000000000000000        0x0 c:/msys64/opt/devkitpro/devkitppc/bin/../lib/gcc/powerpc-eabi/10.2.0/../../../../powerpc-eabi/lib\libc.a(lib_a-memset.o)
 .data          0x0000000000000000        0x0 c:/msys64/opt/devkitpro/devkitppc/bin/../lib/gcc/powerpc-eabi/10.2.0/../../../../powerpc-eabi/lib\libc.a(lib_a-memset.o)
 .bss           0x0000000000000000        0x0 c:/msys64/opt/devkitpro/devkitppc/bin/../lib/gcc/powerpc-eabi/10.2.0/../../../../powerpc-eabi/lib\libc.a(lib_a-memset.o)
 .comment       0x0000000000000000       0x24 c:/msys64/opt/devkitpro/devkitppc/bin/../lib/gcc/powerpc-eabi/10.2.0/../../../../powerpc-eabi/lib\libc.a(lib_a-memset.o)
 .eh_frame      0x0000000000000000       0x28 c:/msys64/opt/devkitpro/devkitppc/bin/../lib/gcc/powerpc-eabi/10.2.0/../../../../powerpc-eabi/lib\libc.a(lib_a-memset.o)
 .text          0x0000000000000000        0x0 c:/msys64/opt/devkitpro/devkitppc/bin/../lib/gcc/powerpc-eabi/10.2.0/../../../../powerpc-eabi/lib\libc.a(lib_a-strlen.o)
 .data          0x0000000000000000        0x0 c:/msys64/opt/devkitpro/devkitppc/bin/../lib/gcc/powerpc-eabi/10.2.0/../../../../powerpc-eabi/lib\libc.a(lib_a-strlen.o)
 .bss           0x0000000000000000        0x0 c:/msys64/opt/devkitpro/devkitppc/bin/../lib/gcc/powerpc-eabi/10.2.0/../../../../powerpc-eabi/lib\libc.a(lib_a-strlen.o)
 .comment       0x0000000000000000       0x24 c:/msys64/opt/devkitpro/devkitppc/bin/../lib/gcc/powerpc-eabi/10.2.0/../../../../powerpc-eabi/lib\libc.a(lib_a-strlen.o)
 .eh_frame      0x0000000000000000       0x28 c:/msys64/opt/devkitpro/devkitppc/bin/../lib/gcc/powerpc-eabi/10.2.0/../../../../powerpc-eabi/lib\libc.a(lib_a-strlen.o)
 .text          0x0000000000000000        0x0 c:/msys64/opt/devkitpro/devkitppc/bin/../lib/gcc/powerpc-eabi/10.2.0/../../../../powerpc-eabi/lib\libc.a(lib_a-vsnprintf.o)
 .data          0x0000000000000000        0x0 c:/msys64/opt/devkitpro/devkitppc/bin/../lib/gcc/powerpc-eabi/10.2.0/../../../../powerpc-eabi/lib\libc.a(lib_a-vsnprintf.o)
 .bss           0x0000000000000000        0x0 c:/msys64/opt/devkitpro/devkitppc/bin/../lib/gcc/powerpc-eabi/10.2.0/../../../../powerpc-eabi/lib\libc.a(lib_a-vsnprintf.o)
 .text._vsnprintf_r
                0x0000000000000000       0xe4 c:/msys64/opt/devkitpro/devkitppc/bin/../lib/gcc/powerpc-eabi/10.2.0/../../../../powerpc-eabi/lib\libc.a(lib_a-vsnprintf.o)
 .comment       0x0000000000000000       0x24 c:/msys64/opt/devkitpro/devkitppc/bin/../lib/gcc/powerpc-eabi/10.2.0/../../../../powerpc-eabi/lib\libc.a(lib_a-vsnprintf.o)
 .eh_frame      0x0000000000000000       0xa4 c:/msys64/opt/devkitpro/devkitppc/bin/../lib/gcc/powerpc-eabi/10.2.0/../../../../powerpc-eabi/lib\libc.a(lib_a-vsnprintf.o)
 .text          0x0000000000000000        0x0 c:/msys64/opt/devkitpro/devkitppc/bin/../lib/gcc/powerpc-eabi/10.2.0/../../../../powerpc-eabi/lib\libc.a(lib_a-impure.o)
 .data          0x0000000000000000        0x0 c:/msys64/opt/devkitpro/devkitppc/bin/../lib/gcc/powerpc-eabi/10.2.0/../../../../powerpc-eabi/lib\libc.a(lib_a-impure.o)
 .bss           0x0000000000000000        0x0 c:/msys64/opt/devkitpro/devkitppc/bin/../lib/gcc/powerpc-eabi/10.2.0/../../../../powerpc-eabi/lib\libc.a(lib_a-impure.o)
 .comment       0x0000000000000000       0x24 c:/msys64/opt/devkitpro/devkitppc/bin/../lib/gcc/powerpc-eabi/10.2.0/../../../../powerpc-eabi/lib\libc.a(lib_a-impure.o)
 .text          0x0000000000000000        0x0 c:/msys64/opt/devkitpro/devkitppc/bin/../lib/gcc/powerpc-eabi/10.2.0/../../../../powerpc-eabi/lib\libc.a(lib_a-svfprintf.o)
 .data          0x0000000000000000        0x0 c:/msys64/opt/devkitpro/devkitppc/bin/../lib/gcc/powerpc-eabi/10.2.0/../../../../powerpc-eabi/lib\libc.a(lib_a-svfprintf.o)
 .bss           0x0000000000000000        0x0 c:/msys64/opt/devkitpro/devkitppc/bin/../lib/gcc/powerpc-eabi/10.2.0/../../../../powerpc-eabi/lib\libc.a(lib_a-svfprintf.o)
 .comment       0x0000000000000000       0x24 c:/msys64/opt/devkitpro/devkitppc/bin/../lib/gcc/powerpc-eabi/10.2.0/../../../../powerpc-eabi/lib\libc.a(lib_a-svfprintf.o)
 .eh_frame      0x0000000000000000      0x168 c:/msys64/opt/devkitpro/devkitppc/bin/../lib/gcc/powerpc-eabi/10.2.0/../../../../powerpc-eabi/lib\libc.a(lib_a-svfprintf.o)
 .gnu.attributes
                0x0000000000000000       0x10 c:/msys64/opt/devkitpro/devkitppc/bin/../lib/gcc/powerpc-eabi/10.2.0/../../../../powerpc-eabi/lib\libc.a(lib_a-svfprintf.o)
 .text          0x0000000000000000        0x0 c:/msys64/opt/devkitpro/devkitppc/bin/../lib/gcc/powerpc-eabi/10.2.0/../../../../powerpc-eabi/lib\libc.a(lib_a-wcrtomb.o)
 .data          0x0000000000000000        0x0 c:/msys64/opt/devkitpro/devkitppc/bin/../lib/gcc/powerpc-eabi/10.2.0/../../../../powerpc-eabi/lib\libc.a(lib_a-wcrtomb.o)
 .bss           0x0000000000000000        0x0 c:/msys64/opt/devkitpro/devkitppc/bin/../lib/gcc/powerpc-eabi/10.2.0/../../../../powerpc-eabi/lib\libc.a(lib_a-wcrtomb.o)
 .text.wcrtomb  0x0000000000000000       0xe8 c:/msys64/opt/devkitpro/devkitppc/bin/../lib/gcc/powerpc-eabi/10.2.0/../../../../powerpc-eabi/lib\libc.a(lib_a-wcrtomb.o)
 .comment       0x0000000000000000       0x24 c:/msys64/opt/devkitpro/devkitppc/bin/../lib/gcc/powerpc-eabi/10.2.0/../../../../powerpc-eabi/lib\libc.a(lib_a-wcrtomb.o)
 .eh_frame      0x0000000000000000       0x84 c:/msys64/opt/devkitpro/devkitppc/bin/../lib/gcc/powerpc-eabi/10.2.0/../../../../powerpc-eabi/lib\libc.a(lib_a-wcrtomb.o)
 .text          0x0000000000000000        0x0 c:/msys64/opt/devkitpro/devkitppc/bin/../lib/gcc/powerpc-eabi/10.2.0/../../../../powerpc-eabi/lib\libc.a(lib_a-wcsrtombs.o)
 .data          0x0000000000000000        0x0 c:/msys64/opt/devkitpro/devkitppc/bin/../lib/gcc/powerpc-eabi/10.2.0/../../../../powerpc-eabi/lib\libc.a(lib_a-wcsrtombs.o)
 .bss           0x0000000000000000        0x0 c:/msys64/opt/devkitpro/devkitppc/bin/../lib/gcc/powerpc-eabi/10.2.0/../../../../powerpc-eabi/lib\libc.a(lib_a-wcsrtombs.o)
 .text.wcsrtombs
                0x0000000000000000       0x28 c:/msys64/opt/devkitpro/devkitppc/bin/../lib/gcc/powerpc-eabi/10.2.0/../../../../powerpc-eabi/lib\libc.a(lib_a-wcsrtombs.o)
 .comment       0x0000000000000000       0x24 c:/msys64/opt/devkitpro/devkitppc/bin/../lib/gcc/powerpc-eabi/10.2.0/../../../../powerpc-eabi/lib\libc.a(lib_a-wcsrtombs.o)
 .eh_frame      0x0000000000000000       0x3c c:/msys64/opt/devkitpro/devkitppc/bin/../lib/gcc/powerpc-eabi/10.2.0/../../../../powerpc-eabi/lib\libc.a(lib_a-wcsrtombs.o)
 .text          0x0000000000000000        0x0 c:/msys64/opt/devkitpro/devkitppc/bin/../lib/gcc/powerpc-eabi/10.2.0/../../../../powerpc-eabi/lib\libc.a(lib_a-dtoa.o)
 .data          0x0000000000000000        0x0 c:/msys64/opt/devkitpro/devkitppc/bin/../lib/gcc/powerpc-eabi/10.2.0/../../../../powerpc-eabi/lib\libc.a(lib_a-dtoa.o)
 .bss           0x0000000000000000        0x0 c:/msys64/opt/devkitpro/devkitppc/bin/../lib/gcc/powerpc-eabi/10.2.0/../../../../powerpc-eabi/lib\libc.a(lib_a-dtoa.o)
 .comment       0x0000000000000000       0x24 c:/msys64/opt/devkitpro/devkitppc/bin/../lib/gcc/powerpc-eabi/10.2.0/../../../../powerpc-eabi/lib\libc.a(lib_a-dtoa.o)
 .eh_frame      0x0000000000000000      0x1f4 c:/msys64/opt/devkitpro/devkitppc/bin/../lib/gcc/powerpc-eabi/10.2.0/../../../../powerpc-eabi/lib\libc.a(lib_a-dtoa.o)
 .gnu.attributes
                0x0000000000000000       0x10 c:/msys64/opt/devkitpro/devkitppc/bin/../lib/gcc/powerpc-eabi/10.2.0/../../../../powerpc-eabi/lib\libc.a(lib_a-dtoa.o)
 .text          0x0000000000000000        0x0 c:/msys64/opt/devkitpro/devkitppc/bin/../lib/gcc/powerpc-eabi/10.2.0/../../../../powerpc-eabi/lib\libc.a(lib_a-freer.o)
 .data          0x0000000000000000        0x0 c:/msys64/opt/devkitpro/devkitppc/bin/../lib/gcc/powerpc-eabi/10.2.0/../../../../powerpc-eabi/lib\libc.a(lib_a-freer.o)
 .bss           0x0000000000000000        0x0 c:/msys64/opt/devkitpro/devkitppc/bin/../lib/gcc/powerpc-eabi/10.2.0/../../../../powerpc-eabi/lib\libc.a(lib_a-freer.o)
 .comment       0x0000000000000000       0x24 c:/msys64/opt/devkitpro/devkitppc/bin/../lib/gcc/powerpc-eabi/10.2.0/../../../../powerpc-eabi/lib\libc.a(lib_a-freer.o)
 .eh_frame      0x0000000000000000       0xac c:/msys64/opt/devkitpro/devkitppc/bin/../lib/gcc/powerpc-eabi/10.2.0/../../../../powerpc-eabi/lib\libc.a(lib_a-freer.o)
 .text          0x0000000000000000        0x0 c:/msys64/opt/devkitpro/devkitppc/bin/../lib/gcc/powerpc-eabi/10.2.0/../../../../powerpc-eabi/lib\libc.a(lib_a-localeconv.o)
 .data          0x0000000000000000        0x0 c:/msys64/opt/devkitpro/devkitppc/bin/../lib/gcc/powerpc-eabi/10.2.0/../../../../powerpc-eabi/lib\libc.a(lib_a-localeconv.o)
 .bss           0x0000000000000000        0x0 c:/msys64/opt/devkitpro/devkitppc/bin/../lib/gcc/powerpc-eabi/10.2.0/../../../../powerpc-eabi/lib\libc.a(lib_a-localeconv.o)
 .text.__localeconv_l
                0x0000000000000000        0x8 c:/msys64/opt/devkitpro/devkitppc/bin/../lib/gcc/powerpc-eabi/10.2.0/../../../../powerpc-eabi/lib\libc.a(lib_a-localeconv.o)
 .text.localeconv
                0x0000000000000000       0x2c c:/msys64/opt/devkitpro/devkitppc/bin/../lib/gcc/powerpc-eabi/10.2.0/../../../../powerpc-eabi/lib\libc.a(lib_a-localeconv.o)
 .comment       0x0000000000000000       0x24 c:/msys64/opt/devkitpro/devkitppc/bin/../lib/gcc/powerpc-eabi/10.2.0/../../../../powerpc-eabi/lib\libc.a(lib_a-localeconv.o)
 .eh_frame      0x0000000000000000       0x50 c:/msys64/opt/devkitpro/devkitppc/bin/../lib/gcc/powerpc-eabi/10.2.0/../../../../powerpc-eabi/lib\libc.a(lib_a-localeconv.o)
 .text          0x0000000000000000        0x0 c:/msys64/opt/devkitpro/devkitppc/bin/../lib/gcc/powerpc-eabi/10.2.0/../../../../powerpc-eabi/lib\libc.a(lib_a-locale.o)
 .data          0x0000000000000000        0x0 c:/msys64/opt/devkitpro/devkitppc/bin/../lib/gcc/powerpc-eabi/10.2.0/../../../../powerpc-eabi/lib\libc.a(lib_a-locale.o)
 .bss           0x0000000000000000        0x0 c:/msys64/opt/devkitpro/devkitppc/bin/../lib/gcc/powerpc-eabi/10.2.0/../../../../powerpc-eabi/lib\libc.a(lib_a-locale.o)
 .rodata.currentlocale.str1.4
                0x0000000000000000        0x2 c:/msys64/opt/devkitpro/devkitppc/bin/../lib/gcc/powerpc-eabi/10.2.0/../../../../powerpc-eabi/lib\libc.a(lib_a-locale.o)
 .text.currentlocale
                0x0000000000000000      0x164 c:/msys64/opt/devkitpro/devkitppc/bin/../lib/gcc/powerpc-eabi/10.2.0/../../../../powerpc-eabi/lib\libc.a(lib_a-locale.o)
 .rodata.__loadlocale.str1.4
                0x0000000000000000       0xd7 c:/msys64/opt/devkitpro/devkitppc/bin/../lib/gcc/powerpc-eabi/10.2.0/../../../../powerpc-eabi/lib\libc.a(lib_a-locale.o)
 .text.__loadlocale
                0x0000000000000000      0x884 c:/msys64/opt/devkitpro/devkitppc/bin/../lib/gcc/powerpc-eabi/10.2.0/../../../../powerpc-eabi/lib\libc.a(lib_a-locale.o)
 .rodata.__loadlocale
                0x0000000000000000      0x138 c:/msys64/opt/devkitpro/devkitppc/bin/../lib/gcc/powerpc-eabi/10.2.0/../../../../powerpc-eabi/lib\libc.a(lib_a-locale.o)
 .rodata.__get_locale_env.str1.4
                0x0000000000000000        0xd c:/msys64/opt/devkitpro/devkitppc/bin/../lib/gcc/powerpc-eabi/10.2.0/../../../../powerpc-eabi/lib\libc.a(lib_a-locale.o)
 .text.__get_locale_env
                0x0000000000000000       0xb8 c:/msys64/opt/devkitpro/devkitppc/bin/../lib/gcc/powerpc-eabi/10.2.0/../../../../powerpc-eabi/lib\libc.a(lib_a-locale.o)
 .text._setlocale_r.part.0
                0x0000000000000000      0x484 c:/msys64/opt/devkitpro/devkitppc/bin/../lib/gcc/powerpc-eabi/10.2.0/../../../../powerpc-eabi/lib\libc.a(lib_a-locale.o)
 .text._setlocale_r
                0x0000000000000000       0x48 c:/msys64/opt/devkitpro/devkitppc/bin/../lib/gcc/powerpc-eabi/10.2.0/../../../../powerpc-eabi/lib\libc.a(lib_a-locale.o)
 .text.setlocale
                0x0000000000000000       0x60 c:/msys64/opt/devkitpro/devkitppc/bin/../lib/gcc/powerpc-eabi/10.2.0/../../../../powerpc-eabi/lib\libc.a(lib_a-locale.o)
 .bss.global_locale_string
                0x0000000000000000       0xe7 c:/msys64/opt/devkitpro/devkitppc/bin/../lib/gcc/powerpc-eabi/10.2.0/../../../../powerpc-eabi/lib\libc.a(lib_a-locale.o)
 .bss.new_categories.1
                0x0000000000000000       0xe0 c:/msys64/opt/devkitpro/devkitppc/bin/../lib/gcc/powerpc-eabi/10.2.0/../../../../powerpc-eabi/lib\libc.a(lib_a-locale.o)
 .bss.saved_categories.0
                0x0000000000000000       0xe0 c:/msys64/opt/devkitpro/devkitppc/bin/../lib/gcc/powerpc-eabi/10.2.0/../../../../powerpc-eabi/lib\libc.a(lib_a-locale.o)
 .data.__default_locale
                0x0000000000000000       0x20 c:/msys64/opt/devkitpro/devkitppc/bin/../lib/gcc/powerpc-eabi/10.2.0/../../../../powerpc-eabi/lib\libc.a(lib_a-locale.o)
 .rodata.__C_locale
                0x0000000000000000      0x16c c:/msys64/opt/devkitpro/devkitppc/bin/../lib/gcc/powerpc-eabi/10.2.0/../../../../powerpc-eabi/lib\libc.a(lib_a-locale.o)
 .rodata.categories
                0x0000000000000000       0x1c c:/msys64/opt/devkitpro/devkitppc/bin/../lib/gcc/powerpc-eabi/10.2.0/../../../../powerpc-eabi/lib\libc.a(lib_a-locale.o)
 .sbss._PathLocale
                0x0000000000000000        0x4 c:/msys64/opt/devkitpro/devkitppc/bin/../lib/gcc/powerpc-eabi/10.2.0/../../../../powerpc-eabi/lib\libc.a(lib_a-locale.o)
 .comment       0x0000000000000000       0x24 c:/msys64/opt/devkitpro/devkitppc/bin/../lib/gcc/powerpc-eabi/10.2.0/../../../../powerpc-eabi/lib\libc.a(lib_a-locale.o)
 .eh_frame      0x0000000000000000      0x1f8 c:/msys64/opt/devkitpro/devkitppc/bin/../lib/gcc/powerpc-eabi/10.2.0/../../../../powerpc-eabi/lib\libc.a(lib_a-locale.o)
 .text          0x0000000000000000        0x0 c:/msys64/opt/devkitpro/devkitppc/bin/../lib/gcc/powerpc-eabi/10.2.0/../../../../powerpc-eabi/lib\libc.a(lib_a-mallocr.o)
 .data          0x0000000000000000        0x0 c:/msys64/opt/devkitpro/devkitppc/bin/../lib/gcc/powerpc-eabi/10.2.0/../../../../powerpc-eabi/lib\libc.a(lib_a-mallocr.o)
 .bss           0x0000000000000000        0x0 c:/msys64/opt/devkitpro/devkitppc/bin/../lib/gcc/powerpc-eabi/10.2.0/../../../../powerpc-eabi/lib\libc.a(lib_a-mallocr.o)
 .comment       0x0000000000000000       0x24 c:/msys64/opt/devkitpro/devkitppc/bin/../lib/gcc/powerpc-eabi/10.2.0/../../../../powerpc-eabi/lib\libc.a(lib_a-mallocr.o)
 .eh_frame      0x0000000000000000       0xfc c:/msys64/opt/devkitpro/devkitppc/bin/../lib/gcc/powerpc-eabi/10.2.0/../../../../powerpc-eabi/lib\libc.a(lib_a-mallocr.o)
 .text          0x0000000000000000        0x0 c:/msys64/opt/devkitpro/devkitppc/bin/../lib/gcc/powerpc-eabi/10.2.0/../../../../powerpc-eabi/lib\libc.a(lib_a-mbtowc_r.o)
 .data          0x0000000000000000        0x0 c:/msys64/opt/devkitpro/devkitppc/bin/../lib/gcc/powerpc-eabi/10.2.0/../../../../powerpc-eabi/lib\libc.a(lib_a-mbtowc_r.o)
 .bss           0x0000000000000000        0x0 c:/msys64/opt/devkitpro/devkitppc/bin/../lib/gcc/powerpc-eabi/10.2.0/../../../../powerpc-eabi/lib\libc.a(lib_a-mbtowc_r.o)
 .text._mbtowc_r
                0x0000000000000000       0x34 c:/msys64/opt/devkitpro/devkitppc/bin/../lib/gcc/powerpc-eabi/10.2.0/../../../../powerpc-eabi/lib\libc.a(lib_a-mbtowc_r.o)
 .text.__ascii_mbtowc
                0x0000000000000000       0x84 c:/msys64/opt/devkitpro/devkitppc/bin/../lib/gcc/powerpc-eabi/10.2.0/../../../../powerpc-eabi/lib\libc.a(lib_a-mbtowc_r.o)
 .text.__sjis_mbtowc
                0x0000000000000000      0x1a4 c:/msys64/opt/devkitpro/devkitppc/bin/../lib/gcc/powerpc-eabi/10.2.0/../../../../powerpc-eabi/lib\libc.a(lib_a-mbtowc_r.o)
 .text.__eucjp_mbtowc
                0x0000000000000000      0x250 c:/msys64/opt/devkitpro/devkitppc/bin/../lib/gcc/powerpc-eabi/10.2.0/../../../../powerpc-eabi/lib\libc.a(lib_a-mbtowc_r.o)
 .text.__jis_mbtowc
                0x0000000000000000      0x1f4 c:/msys64/opt/devkitpro/devkitppc/bin/../lib/gcc/powerpc-eabi/10.2.0/../../../../powerpc-eabi/lib\libc.a(lib_a-mbtowc_r.o)
 .rodata.__jis_mbtowc
                0x0000000000000000       0xd8 c:/msys64/opt/devkitpro/devkitppc/bin/../lib/gcc/powerpc-eabi/10.2.0/../../../../powerpc-eabi/lib\libc.a(lib_a-mbtowc_r.o)
 .rodata.JIS_action_table
                0x0000000000000000       0x48 c:/msys64/opt/devkitpro/devkitppc/bin/../lib/gcc/powerpc-eabi/10.2.0/../../../../powerpc-eabi/lib\libc.a(lib_a-mbtowc_r.o)
 .rodata.JIS_state_table
                0x0000000000000000       0x48 c:/msys64/opt/devkitpro/devkitppc/bin/../lib/gcc/powerpc-eabi/10.2.0/../../../../powerpc-eabi/lib\libc.a(lib_a-mbtowc_r.o)
 .comment       0x0000000000000000       0x24 c:/msys64/opt/devkitpro/devkitppc/bin/../lib/gcc/powerpc-eabi/10.2.0/../../../../powerpc-eabi/lib\libc.a(lib_a-mbtowc_r.o)
 .eh_frame      0x0000000000000000      0x144 c:/msys64/opt/devkitpro/devkitppc/bin/../lib/gcc/powerpc-eabi/10.2.0/../../../../powerpc-eabi/lib\libc.a(lib_a-mbtowc_r.o)
 .text          0x0000000000000000        0x0 c:/msys64/opt/devkitpro/devkitppc/bin/../lib/gcc/powerpc-eabi/10.2.0/../../../../powerpc-eabi/lib\libc.a(lib_a-memchr.o)
 .data          0x0000000000000000        0x0 c:/msys64/opt/devkitpro/devkitppc/bin/../lib/gcc/powerpc-eabi/10.2.0/../../../../powerpc-eabi/lib\libc.a(lib_a-memchr.o)
 .bss           0x0000000000000000        0x0 c:/msys64/opt/devkitpro/devkitppc/bin/../lib/gcc/powerpc-eabi/10.2.0/../../../../powerpc-eabi/lib\libc.a(lib_a-memchr.o)
 .comment       0x0000000000000000       0x24 c:/msys64/opt/devkitpro/devkitppc/bin/../lib/gcc/powerpc-eabi/10.2.0/../../../../powerpc-eabi/lib\libc.a(lib_a-memchr.o)
 .eh_frame      0x0000000000000000       0x28 c:/msys64/opt/devkitpro/devkitppc/bin/../lib/gcc/powerpc-eabi/10.2.0/../../../../powerpc-eabi/lib\libc.a(lib_a-memchr.o)
 .text          0x0000000000000000        0x0 c:/msys64/opt/devkitpro/devkitppc/bin/../lib/gcc/powerpc-eabi/10.2.0/../../../../powerpc-eabi/lib\libc.a(lib_a-mprec.o)
 .data          0x0000000000000000        0x0 c:/msys64/opt/devkitpro/devkitppc/bin/../lib/gcc/powerpc-eabi/10.2.0/../../../../powerpc-eabi/lib\libc.a(lib_a-mprec.o)
 .bss           0x0000000000000000        0x0 c:/msys64/opt/devkitpro/devkitppc/bin/../lib/gcc/powerpc-eabi/10.2.0/../../../../powerpc-eabi/lib\libc.a(lib_a-mprec.o)
 .text.__s2b    0x0000000000000000      0x158 c:/msys64/opt/devkitpro/devkitppc/bin/../lib/gcc/powerpc-eabi/10.2.0/../../../../powerpc-eabi/lib\libc.a(lib_a-mprec.o)
 .text.__ulp    0x0000000000000000       0x9c c:/msys64/opt/devkitpro/devkitppc/bin/../lib/gcc/powerpc-eabi/10.2.0/../../../../powerpc-eabi/lib\libc.a(lib_a-mprec.o)
 .text.__b2d    0x0000000000000000      0x184 c:/msys64/opt/devkitpro/devkitppc/bin/../lib/gcc/powerpc-eabi/10.2.0/../../../../powerpc-eabi/lib\libc.a(lib_a-mprec.o)
 .text.__ratio  0x0000000000000000       0xd0 c:/msys64/opt/devkitpro/devkitppc/bin/../lib/gcc/powerpc-eabi/10.2.0/../../../../powerpc-eabi/lib\libc.a(lib_a-mprec.o)
 .text._mprec_log10
                0x0000000000000000       0x64 c:/msys64/opt/devkitpro/devkitppc/bin/../lib/gcc/powerpc-eabi/10.2.0/../../../../powerpc-eabi/lib\libc.a(lib_a-mprec.o)
 .text.__copybits
                0x0000000000000000       0xf4 c:/msys64/opt/devkitpro/devkitppc/bin/../lib/gcc/powerpc-eabi/10.2.0/../../../../powerpc-eabi/lib\libc.a(lib_a-mprec.o)
 .text.__any_on
                0x0000000000000000       0xa8 c:/msys64/opt/devkitpro/devkitppc/bin/../lib/gcc/powerpc-eabi/10.2.0/../../../../powerpc-eabi/lib\libc.a(lib_a-mprec.o)
 .rodata.cst4   0x0000000000000000        0x8 c:/msys64/opt/devkitpro/devkitppc/bin/../lib/gcc/powerpc-eabi/10.2.0/../../../../powerpc-eabi/lib\libc.a(lib_a-mprec.o)
 .rodata.__mprec_tinytens
                0x0000000000000000       0x28 c:/msys64/opt/devkitpro/devkitppc/bin/../lib/gcc/powerpc-eabi/10.2.0/../../../../powerpc-eabi/lib\libc.a(lib_a-mprec.o)
 .comment       0x0000000000000000       0x24 c:/msys64/opt/devkitpro/devkitppc/bin/../lib/gcc/powerpc-eabi/10.2.0/../../../../powerpc-eabi/lib\libc.a(lib_a-mprec.o)
 .eh_frame      0x0000000000000000      0x3cc c:/msys64/opt/devkitpro/devkitppc/bin/../lib/gcc/powerpc-eabi/10.2.0/../../../../powerpc-eabi/lib\libc.a(lib_a-mprec.o)
 .gnu.attributes
                0x0000000000000000       0x10 c:/msys64/opt/devkitpro/devkitppc/bin/../lib/gcc/powerpc-eabi/10.2.0/../../../../powerpc-eabi/lib\libc.a(lib_a-mprec.o)
 .text          0x0000000000000000        0x0 c:/msys64/opt/devkitpro/devkitppc/bin/../lib/gcc/powerpc-eabi/10.2.0/../../../../powerpc-eabi/lib\libc.a(lib_a-strcasecmp.o)
 .data          0x0000000000000000        0x0 c:/msys64/opt/devkitpro/devkitppc/bin/../lib/gcc/powerpc-eabi/10.2.0/../../../../powerpc-eabi/lib\libc.a(lib_a-strcasecmp.o)
 .bss           0x0000000000000000        0x0 c:/msys64/opt/devkitpro/devkitppc/bin/../lib/gcc/powerpc-eabi/10.2.0/../../../../powerpc-eabi/lib\libc.a(lib_a-strcasecmp.o)
 .text.strcasecmp
                0x0000000000000000       0x68 c:/msys64/opt/devkitpro/devkitppc/bin/../lib/gcc/powerpc-eabi/10.2.0/../../../../powerpc-eabi/lib\libc.a(lib_a-strcasecmp.o)
 .comment       0x0000000000000000       0x24 c:/msys64/opt/devkitpro/devkitppc/bin/../lib/gcc/powerpc-eabi/10.2.0/../../../../powerpc-eabi/lib\libc.a(lib_a-strcasecmp.o)
 .eh_frame      0x0000000000000000       0x28 c:/msys64/opt/devkitpro/devkitppc/bin/../lib/gcc/powerpc-eabi/10.2.0/../../../../powerpc-eabi/lib\libc.a(lib_a-strcasecmp.o)
 .text          0x0000000000000000        0x0 c:/msys64/opt/devkitpro/devkitppc/bin/../lib/gcc/powerpc-eabi/10.2.0/../../../../powerpc-eabi/lib\libc.a(lib_a-strcat.o)
 .data          0x0000000000000000        0x0 c:/msys64/opt/devkitpro/devkitppc/bin/../lib/gcc/powerpc-eabi/10.2.0/../../../../powerpc-eabi/lib\libc.a(lib_a-strcat.o)
 .bss           0x0000000000000000        0x0 c:/msys64/opt/devkitpro/devkitppc/bin/../lib/gcc/powerpc-eabi/10.2.0/../../../../powerpc-eabi/lib\libc.a(lib_a-strcat.o)
 .text.strcat   0x0000000000000000       0x78 c:/msys64/opt/devkitpro/devkitppc/bin/../lib/gcc/powerpc-eabi/10.2.0/../../../../powerpc-eabi/lib\libc.a(lib_a-strcat.o)
 .comment       0x0000000000000000       0x24 c:/msys64/opt/devkitpro/devkitppc/bin/../lib/gcc/powerpc-eabi/10.2.0/../../../../powerpc-eabi/lib\libc.a(lib_a-strcat.o)
 .eh_frame      0x0000000000000000       0x3c c:/msys64/opt/devkitpro/devkitppc/bin/../lib/gcc/powerpc-eabi/10.2.0/../../../../powerpc-eabi/lib\libc.a(lib_a-strcat.o)
 .text          0x0000000000000000        0x0 c:/msys64/opt/devkitpro/devkitppc/bin/../lib/gcc/powerpc-eabi/10.2.0/../../../../powerpc-eabi/lib\libc.a(lib_a-strchr.o)
 .data          0x0000000000000000        0x0 c:/msys64/opt/devkitpro/devkitppc/bin/../lib/gcc/powerpc-eabi/10.2.0/../../../../powerpc-eabi/lib\libc.a(lib_a-strchr.o)
 .bss           0x0000000000000000        0x0 c:/msys64/opt/devkitpro/devkitppc/bin/../lib/gcc/powerpc-eabi/10.2.0/../../../../powerpc-eabi/lib\libc.a(lib_a-strchr.o)
 .text.strchr   0x0000000000000000      0x144 c:/msys64/opt/devkitpro/devkitppc/bin/../lib/gcc/powerpc-eabi/10.2.0/../../../../powerpc-eabi/lib\libc.a(lib_a-strchr.o)
 .comment       0x0000000000000000       0x24 c:/msys64/opt/devkitpro/devkitppc/bin/../lib/gcc/powerpc-eabi/10.2.0/../../../../powerpc-eabi/lib\libc.a(lib_a-strchr.o)
 .eh_frame      0x0000000000000000       0x28 c:/msys64/opt/devkitpro/devkitppc/bin/../lib/gcc/powerpc-eabi/10.2.0/../../../../powerpc-eabi/lib\libc.a(lib_a-strchr.o)
 .text          0x0000000000000000        0x0 c:/msys64/opt/devkitpro/devkitppc/bin/../lib/gcc/powerpc-eabi/10.2.0/../../../../powerpc-eabi/lib\libc.a(lib_a-strcmp.o)
 .data          0x0000000000000000        0x0 c:/msys64/opt/devkitpro/devkitppc/bin/../lib/gcc/powerpc-eabi/10.2.0/../../../../powerpc-eabi/lib\libc.a(lib_a-strcmp.o)
 .bss           0x0000000000000000        0x0 c:/msys64/opt/devkitpro/devkitppc/bin/../lib/gcc/powerpc-eabi/10.2.0/../../../../powerpc-eabi/lib\libc.a(lib_a-strcmp.o)
 .text.strcmp   0x0000000000000000       0x90 c:/msys64/opt/devkitpro/devkitppc/bin/../lib/gcc/powerpc-eabi/10.2.0/../../../../powerpc-eabi/lib\libc.a(lib_a-strcmp.o)
 .comment       0x0000000000000000       0x24 c:/msys64/opt/devkitpro/devkitppc/bin/../lib/gcc/powerpc-eabi/10.2.0/../../../../powerpc-eabi/lib\libc.a(lib_a-strcmp.o)
 .eh_frame      0x0000000000000000       0x28 c:/msys64/opt/devkitpro/devkitppc/bin/../lib/gcc/powerpc-eabi/10.2.0/../../../../powerpc-eabi/lib\libc.a(lib_a-strcmp.o)
 .text          0x0000000000000000        0x0 c:/msys64/opt/devkitpro/devkitppc/bin/../lib/gcc/powerpc-eabi/10.2.0/../../../../powerpc-eabi/lib\libc.a(lib_a-strcpy.o)
 .data          0x0000000000000000        0x0 c:/msys64/opt/devkitpro/devkitppc/bin/../lib/gcc/powerpc-eabi/10.2.0/../../../../powerpc-eabi/lib\libc.a(lib_a-strcpy.o)
 .bss           0x0000000000000000        0x0 c:/msys64/opt/devkitpro/devkitppc/bin/../lib/gcc/powerpc-eabi/10.2.0/../../../../powerpc-eabi/lib\libc.a(lib_a-strcpy.o)
 .text.strcpy   0x0000000000000000       0x84 c:/msys64/opt/devkitpro/devkitppc/bin/../lib/gcc/powerpc-eabi/10.2.0/../../../../powerpc-eabi/lib\libc.a(lib_a-strcpy.o)
 .comment       0x0000000000000000       0x24 c:/msys64/opt/devkitpro/devkitppc/bin/../lib/gcc/powerpc-eabi/10.2.0/../../../../powerpc-eabi/lib\libc.a(lib_a-strcpy.o)
 .eh_frame      0x0000000000000000       0x28 c:/msys64/opt/devkitpro/devkitppc/bin/../lib/gcc/powerpc-eabi/10.2.0/../../../../powerpc-eabi/lib\libc.a(lib_a-strcpy.o)
 .text          0x0000000000000000        0x0 c:/msys64/opt/devkitpro/devkitppc/bin/../lib/gcc/powerpc-eabi/10.2.0/../../../../powerpc-eabi/lib\libc.a(lib_a-strlcpy.o)
 .data          0x0000000000000000        0x0 c:/msys64/opt/devkitpro/devkitppc/bin/../lib/gcc/powerpc-eabi/10.2.0/../../../../powerpc-eabi/lib\libc.a(lib_a-strlcpy.o)
 .bss           0x0000000000000000        0x0 c:/msys64/opt/devkitpro/devkitppc/bin/../lib/gcc/powerpc-eabi/10.2.0/../../../../powerpc-eabi/lib\libc.a(lib_a-strlcpy.o)
 .text.strlcpy  0x0000000000000000       0x84 c:/msys64/opt/devkitpro/devkitppc/bin/../lib/gcc/powerpc-eabi/10.2.0/../../../../powerpc-eabi/lib\libc.a(lib_a-strlcpy.o)
 .comment       0x0000000000000000       0x24 c:/msys64/opt/devkitpro/devkitppc/bin/../lib/gcc/powerpc-eabi/10.2.0/../../../../powerpc-eabi/lib\libc.a(lib_a-strlcpy.o)
 .eh_frame      0x0000000000000000       0x28 c:/msys64/opt/devkitpro/devkitppc/bin/../lib/gcc/powerpc-eabi/10.2.0/../../../../powerpc-eabi/lib\libc.a(lib_a-strlcpy.o)
 .text          0x0000000000000000        0x0 c:/msys64/opt/devkitpro/devkitppc/bin/../lib/gcc/powerpc-eabi/10.2.0/../../../../powerpc-eabi/lib\libc.a(lib_a-strncasecmp.o)
 .data          0x0000000000000000        0x0 c:/msys64/opt/devkitpro/devkitppc/bin/../lib/gcc/powerpc-eabi/10.2.0/../../../../powerpc-eabi/lib\libc.a(lib_a-strncasecmp.o)
 .bss           0x0000000000000000        0x0 c:/msys64/opt/devkitpro/devkitppc/bin/../lib/gcc/powerpc-eabi/10.2.0/../../../../powerpc-eabi/lib\libc.a(lib_a-strncasecmp.o)
 .text.strncasecmp
                0x0000000000000000       0x80 c:/msys64/opt/devkitpro/devkitppc/bin/../lib/gcc/powerpc-eabi/10.2.0/../../../../powerpc-eabi/lib\libc.a(lib_a-strncasecmp.o)
 .comment       0x0000000000000000       0x24 c:/msys64/opt/devkitpro/devkitppc/bin/../lib/gcc/powerpc-eabi/10.2.0/../../../../powerpc-eabi/lib\libc.a(lib_a-strncasecmp.o)
 .eh_frame      0x0000000000000000       0x28 c:/msys64/opt/devkitpro/devkitppc/bin/../lib/gcc/powerpc-eabi/10.2.0/../../../../powerpc-eabi/lib\libc.a(lib_a-strncasecmp.o)
 .text          0x0000000000000000        0x0 c:/msys64/opt/devkitpro/devkitppc/bin/../lib/gcc/powerpc-eabi/10.2.0/../../../../powerpc-eabi/lib\libc.a(lib_a-strncmp.o)
 .data          0x0000000000000000        0x0 c:/msys64/opt/devkitpro/devkitppc/bin/../lib/gcc/powerpc-eabi/10.2.0/../../../../powerpc-eabi/lib\libc.a(lib_a-strncmp.o)
 .bss           0x0000000000000000        0x0 c:/msys64/opt/devkitpro/devkitppc/bin/../lib/gcc/powerpc-eabi/10.2.0/../../../../powerpc-eabi/lib\libc.a(lib_a-strncmp.o)
 .text.strncmp  0x0000000000000000       0xe4 c:/msys64/opt/devkitpro/devkitppc/bin/../lib/gcc/powerpc-eabi/10.2.0/../../../../powerpc-eabi/lib\libc.a(lib_a-strncmp.o)
 .comment       0x0000000000000000       0x24 c:/msys64/opt/devkitpro/devkitppc/bin/../lib/gcc/powerpc-eabi/10.2.0/../../../../powerpc-eabi/lib\libc.a(lib_a-strncmp.o)
 .eh_frame      0x0000000000000000       0x28 c:/msys64/opt/devkitpro/devkitppc/bin/../lib/gcc/powerpc-eabi/10.2.0/../../../../powerpc-eabi/lib\libc.a(lib_a-strncmp.o)
 .text          0x0000000000000000        0x0 c:/msys64/opt/devkitpro/devkitppc/bin/../lib/gcc/powerpc-eabi/10.2.0/../../../../powerpc-eabi/lib\libc.a(lib_a-strncpy.o)
 .data          0x0000000000000000        0x0 c:/msys64/opt/devkitpro/devkitppc/bin/../lib/gcc/powerpc-eabi/10.2.0/../../../../powerpc-eabi/lib\libc.a(lib_a-strncpy.o)
 .bss           0x0000000000000000        0x0 c:/msys64/opt/devkitpro/devkitppc/bin/../lib/gcc/powerpc-eabi/10.2.0/../../../../powerpc-eabi/lib\libc.a(lib_a-strncpy.o)
 .text.strncpy  0x0000000000000000      0x128 c:/msys64/opt/devkitpro/devkitppc/bin/../lib/gcc/powerpc-eabi/10.2.0/../../../../powerpc-eabi/lib\libc.a(lib_a-strncpy.o)
 .comment       0x0000000000000000       0x24 c:/msys64/opt/devkitpro/devkitppc/bin/../lib/gcc/powerpc-eabi/10.2.0/../../../../powerpc-eabi/lib\libc.a(lib_a-strncpy.o)
 .eh_frame      0x0000000000000000       0x28 c:/msys64/opt/devkitpro/devkitppc/bin/../lib/gcc/powerpc-eabi/10.2.0/../../../../powerpc-eabi/lib\libc.a(lib_a-strncpy.o)
 .text          0x0000000000000000        0x0 c:/msys64/opt/devkitpro/devkitppc/bin/../lib/gcc/powerpc-eabi/10.2.0/../../../../powerpc-eabi/lib\libc.a(lib_a-strtol.o)
 .data          0x0000000000000000        0x0 c:/msys64/opt/devkitpro/devkitppc/bin/../lib/gcc/powerpc-eabi/10.2.0/../../../../powerpc-eabi/lib\libc.a(lib_a-strtol.o)
 .bss           0x0000000000000000        0x0 c:/msys64/opt/devkitpro/devkitppc/bin/../lib/gcc/powerpc-eabi/10.2.0/../../../../powerpc-eabi/lib\libc.a(lib_a-strtol.o)
 .text._strtol_l.part.0
                0x0000000000000000      0x1ec c:/msys64/opt/devkitpro/devkitppc/bin/../lib/gcc/powerpc-eabi/10.2.0/../../../../powerpc-eabi/lib\libc.a(lib_a-strtol.o)
 .text._strtol_r
                0x0000000000000000       0x40 c:/msys64/opt/devkitpro/devkitppc/bin/../lib/gcc/powerpc-eabi/10.2.0/../../../../powerpc-eabi/lib\libc.a(lib_a-strtol.o)
 .text.strtol_l
                0x0000000000000000       0x58 c:/msys64/opt/devkitpro/devkitppc/bin/../lib/gcc/powerpc-eabi/10.2.0/../../../../powerpc-eabi/lib\libc.a(lib_a-strtol.o)
 .text.strtol   0x0000000000000000       0x58 c:/msys64/opt/devkitpro/devkitppc/bin/../lib/gcc/powerpc-eabi/10.2.0/../../../../powerpc-eabi/lib\libc.a(lib_a-strtol.o)
 .comment       0x0000000000000000       0x24 c:/msys64/opt/devkitpro/devkitppc/bin/../lib/gcc/powerpc-eabi/10.2.0/../../../../powerpc-eabi/lib\libc.a(lib_a-strtol.o)
 .eh_frame      0x0000000000000000       0x9c c:/msys64/opt/devkitpro/devkitppc/bin/../lib/gcc/powerpc-eabi/10.2.0/../../../../powerpc-eabi/lib\libc.a(lib_a-strtol.o)
 .text          0x0000000000000000        0x0 c:/msys64/opt/devkitpro/devkitppc/bin/../lib/gcc/powerpc-eabi/10.2.0/../../../../powerpc-eabi/lib\libc.a(lib_a-svfiprintf.o)
 .data          0x0000000000000000        0x0 c:/msys64/opt/devkitpro/devkitppc/bin/../lib/gcc/powerpc-eabi/10.2.0/../../../../powerpc-eabi/lib\libc.a(lib_a-svfiprintf.o)
 .bss           0x0000000000000000        0x0 c:/msys64/opt/devkitpro/devkitppc/bin/../lib/gcc/powerpc-eabi/10.2.0/../../../../powerpc-eabi/lib\libc.a(lib_a-svfiprintf.o)
 .rodata._svfiprintf_r.str1.4
                0x0000000000000000       0x2f c:/msys64/opt/devkitpro/devkitppc/bin/../lib/gcc/powerpc-eabi/10.2.0/../../../../powerpc-eabi/lib\libc.a(lib_a-svfiprintf.o)
 .text._svfiprintf_r
                0x0000000000000000     0x14f0 c:/msys64/opt/devkitpro/devkitppc/bin/../lib/gcc/powerpc-eabi/10.2.0/../../../../powerpc-eabi/lib\libc.a(lib_a-svfiprintf.o)
 .rodata._svfiprintf_r
                0x0000000000000000      0x164 c:/msys64/opt/devkitpro/devkitppc/bin/../lib/gcc/powerpc-eabi/10.2.0/../../../../powerpc-eabi/lib\libc.a(lib_a-svfiprintf.o)
 .rodata.blanks.1
                0x0000000000000000       0x10 c:/msys64/opt/devkitpro/devkitppc/bin/../lib/gcc/powerpc-eabi/10.2.0/../../../../powerpc-eabi/lib\libc.a(lib_a-svfiprintf.o)
 .rodata.zeroes.0
                0x0000000000000000       0x10 c:/msys64/opt/devkitpro/devkitppc/bin/../lib/gcc/powerpc-eabi/10.2.0/../../../../powerpc-eabi/lib\libc.a(lib_a-svfiprintf.o)
 .comment       0x0000000000000000       0x24 c:/msys64/opt/devkitpro/devkitppc/bin/../lib/gcc/powerpc-eabi/10.2.0/../../../../powerpc-eabi/lib\libc.a(lib_a-svfiprintf.o)
 .eh_frame      0x0000000000000000      0x1b8 c:/msys64/opt/devkitpro/devkitppc/bin/../lib/gcc/powerpc-eabi/10.2.0/../../../../powerpc-eabi/lib\libc.a(lib_a-svfiprintf.o)
 .text          0x0000000000000000        0x0 c:/msys64/opt/devkitpro/devkitppc/bin/../lib/gcc/powerpc-eabi/10.2.0/../../../../powerpc-eabi/lib\libc.a(lib_a-wcsnrtombs.o)
 .data          0x0000000000000000        0x0 c:/msys64/opt/devkitpro/devkitppc/bin/../lib/gcc/powerpc-eabi/10.2.0/../../../../powerpc-eabi/lib\libc.a(lib_a-wcsnrtombs.o)
 .bss           0x0000000000000000        0x0 c:/msys64/opt/devkitpro/devkitppc/bin/../lib/gcc/powerpc-eabi/10.2.0/../../../../powerpc-eabi/lib\libc.a(lib_a-wcsnrtombs.o)
 .text.wcsnrtombs
                0x0000000000000000       0x4c c:/msys64/opt/devkitpro/devkitppc/bin/../lib/gcc/powerpc-eabi/10.2.0/../../../../powerpc-eabi/lib\libc.a(lib_a-wcsnrtombs.o)
 .comment       0x0000000000000000       0x24 c:/msys64/opt/devkitpro/devkitppc/bin/../lib/gcc/powerpc-eabi/10.2.0/../../../../powerpc-eabi/lib\libc.a(lib_a-wcsnrtombs.o)
 .eh_frame      0x0000000000000000       0xe4 c:/msys64/opt/devkitpro/devkitppc/bin/../lib/gcc/powerpc-eabi/10.2.0/../../../../powerpc-eabi/lib\libc.a(lib_a-wcsnrtombs.o)
 .text          0x0000000000000000        0x0 c:/msys64/opt/devkitpro/devkitppc/bin/../lib/gcc/powerpc-eabi/10.2.0/../../../../powerpc-eabi/lib\libc.a(lib_a-wctomb_r.o)
 .data          0x0000000000000000        0x0 c:/msys64/opt/devkitpro/devkitppc/bin/../lib/gcc/powerpc-eabi/10.2.0/../../../../powerpc-eabi/lib\libc.a(lib_a-wctomb_r.o)
 .bss           0x0000000000000000        0x0 c:/msys64/opt/devkitpro/devkitppc/bin/../lib/gcc/powerpc-eabi/10.2.0/../../../../powerpc-eabi/lib\libc.a(lib_a-wctomb_r.o)
 .text._wctomb_r
                0x0000000000000000       0x34 c:/msys64/opt/devkitpro/devkitppc/bin/../lib/gcc/powerpc-eabi/10.2.0/../../../../powerpc-eabi/lib\libc.a(lib_a-wctomb_r.o)
 .text.__ascii_wctomb
                0x0000000000000000       0x38 c:/msys64/opt/devkitpro/devkitppc/bin/../lib/gcc/powerpc-eabi/10.2.0/../../../../powerpc-eabi/lib\libc.a(lib_a-wctomb_r.o)
 .text.__sjis_wctomb
                0x0000000000000000       0x8c c:/msys64/opt/devkitpro/devkitppc/bin/../lib/gcc/powerpc-eabi/10.2.0/../../../../powerpc-eabi/lib\libc.a(lib_a-wctomb_r.o)
 .text.__eucjp_wctomb
                0x0000000000000000       0xb8 c:/msys64/opt/devkitpro/devkitppc/bin/../lib/gcc/powerpc-eabi/10.2.0/../../../../powerpc-eabi/lib\libc.a(lib_a-wctomb_r.o)
 .text.__jis_wctomb
                0x0000000000000000       0xc0 c:/msys64/opt/devkitpro/devkitppc/bin/../lib/gcc/powerpc-eabi/10.2.0/../../../../powerpc-eabi/lib\libc.a(lib_a-wctomb_r.o)
 .comment       0x0000000000000000       0x24 c:/msys64/opt/devkitpro/devkitppc/bin/../lib/gcc/powerpc-eabi/10.2.0/../../../../powerpc-eabi/lib\libc.a(lib_a-wctomb_r.o)
 .eh_frame      0x0000000000000000       0x8c c:/msys64/opt/devkitpro/devkitppc/bin/../lib/gcc/powerpc-eabi/10.2.0/../../../../powerpc-eabi/lib\libc.a(lib_a-wctomb_r.o)
 .text          0x0000000000000000        0x0 c:/msys64/opt/devkitpro/devkitppc/bin/../lib/gcc/powerpc-eabi/10.2.0/../../../../powerpc-eabi/lib\libc.a(lib_a-assert.o)
 .data          0x0000000000000000        0x0 c:/msys64/opt/devkitpro/devkitppc/bin/../lib/gcc/powerpc-eabi/10.2.0/../../../../powerpc-eabi/lib\libc.a(lib_a-assert.o)
 .bss           0x0000000000000000        0x0 c:/msys64/opt/devkitpro/devkitppc/bin/../lib/gcc/powerpc-eabi/10.2.0/../../../../powerpc-eabi/lib\libc.a(lib_a-assert.o)
 .text.__assert
                0x0000000000000000       0x18 c:/msys64/opt/devkitpro/devkitppc/bin/../lib/gcc/powerpc-eabi/10.2.0/../../../../powerpc-eabi/lib\libc.a(lib_a-assert.o)
 .comment       0x0000000000000000       0x24 c:/msys64/opt/devkitpro/devkitppc/bin/../lib/gcc/powerpc-eabi/10.2.0/../../../../powerpc-eabi/lib\libc.a(lib_a-assert.o)
 .eh_frame      0x0000000000000000       0x44 c:/msys64/opt/devkitpro/devkitppc/bin/../lib/gcc/powerpc-eabi/10.2.0/../../../../powerpc-eabi/lib\libc.a(lib_a-assert.o)
 .text          0x0000000000000000        0x0 c:/msys64/opt/devkitpro/devkitppc/bin/../lib/gcc/powerpc-eabi/10.2.0/../../../../powerpc-eabi/lib\libc.a(lib_a-callocr.o)
 .data          0x0000000000000000        0x0 c:/msys64/opt/devkitpro/devkitppc/bin/../lib/gcc/powerpc-eabi/10.2.0/../../../../powerpc-eabi/lib\libc.a(lib_a-callocr.o)
 .bss           0x0000000000000000        0x0 c:/msys64/opt/devkitpro/devkitppc/bin/../lib/gcc/powerpc-eabi/10.2.0/../../../../powerpc-eabi/lib\libc.a(lib_a-callocr.o)
 .comment       0x0000000000000000       0x24 c:/msys64/opt/devkitpro/devkitppc/bin/../lib/gcc/powerpc-eabi/10.2.0/../../../../powerpc-eabi/lib\libc.a(lib_a-callocr.o)
 .eh_frame      0x0000000000000000       0x44 c:/msys64/opt/devkitpro/devkitppc/bin/../lib/gcc/powerpc-eabi/10.2.0/../../../../powerpc-eabi/lib\libc.a(lib_a-callocr.o)
 .text          0x0000000000000000        0x0 c:/msys64/opt/devkitpro/devkitppc/bin/../lib/gcc/powerpc-eabi/10.2.0/../../../../powerpc-eabi/lib\libc.a(lib_a-ctype_.o)
 .data          0x0000000000000000        0x0 c:/msys64/opt/devkitpro/devkitppc/bin/../lib/gcc/powerpc-eabi/10.2.0/../../../../powerpc-eabi/lib\libc.a(lib_a-ctype_.o)
 .bss           0x0000000000000000        0x0 c:/msys64/opt/devkitpro/devkitppc/bin/../lib/gcc/powerpc-eabi/10.2.0/../../../../powerpc-eabi/lib\libc.a(lib_a-ctype_.o)
 .text.__set_ctype
                0x0000000000000000       0x10 c:/msys64/opt/devkitpro/devkitppc/bin/../lib/gcc/powerpc-eabi/10.2.0/../../../../powerpc-eabi/lib\libc.a(lib_a-ctype_.o)
 .comment       0x0000000000000000       0x24 c:/msys64/opt/devkitpro/devkitppc/bin/../lib/gcc/powerpc-eabi/10.2.0/../../../../powerpc-eabi/lib\libc.a(lib_a-ctype_.o)
 .eh_frame      0x0000000000000000       0x28 c:/msys64/opt/devkitpro/devkitppc/bin/../lib/gcc/powerpc-eabi/10.2.0/../../../../powerpc-eabi/lib\libc.a(lib_a-ctype_.o)
 .text          0x0000000000000000        0x0 c:/msys64/opt/devkitpro/devkitppc/bin/../lib/gcc/powerpc-eabi/10.2.0/../../../../powerpc-eabi/lib\libc.a(lib_a-errno.o)
 .data          0x0000000000000000        0x0 c:/msys64/opt/devkitpro/devkitppc/bin/../lib/gcc/powerpc-eabi/10.2.0/../../../../powerpc-eabi/lib\libc.a(lib_a-errno.o)
 .bss           0x0000000000000000        0x0 c:/msys64/opt/devkitpro/devkitppc/bin/../lib/gcc/powerpc-eabi/10.2.0/../../../../powerpc-eabi/lib\libc.a(lib_a-errno.o)
 .text.__errno  0x0000000000000000        0xc c:/msys64/opt/devkitpro/devkitppc/bin/../lib/gcc/powerpc-eabi/10.2.0/../../../../powerpc-eabi/lib\libc.a(lib_a-errno.o)
 .comment       0x0000000000000000       0x24 c:/msys64/opt/devkitpro/devkitppc/bin/../lib/gcc/powerpc-eabi/10.2.0/../../../../powerpc-eabi/lib\libc.a(lib_a-errno.o)
 .eh_frame      0x0000000000000000       0x28 c:/msys64/opt/devkitpro/devkitppc/bin/../lib/gcc/powerpc-eabi/10.2.0/../../../../powerpc-eabi/lib\libc.a(lib_a-errno.o)
 .text          0x0000000000000000        0x0 c:/msys64/opt/devkitpro/devkitppc/bin/../lib/gcc/powerpc-eabi/10.2.0/../../../../powerpc-eabi/lib\libc.a(lib_a-fiprintf.o)
 .data          0x0000000000000000        0x0 c:/msys64/opt/devkitpro/devkitppc/bin/../lib/gcc/powerpc-eabi/10.2.0/../../../../powerpc-eabi/lib\libc.a(lib_a-fiprintf.o)
 .bss           0x0000000000000000        0x0 c:/msys64/opt/devkitpro/devkitppc/bin/../lib/gcc/powerpc-eabi/10.2.0/../../../../powerpc-eabi/lib\libc.a(lib_a-fiprintf.o)
 .text._fiprintf_r
                0x0000000000000000       0x7c c:/msys64/opt/devkitpro/devkitppc/bin/../lib/gcc/powerpc-eabi/10.2.0/../../../../powerpc-eabi/lib\libc.a(lib_a-fiprintf.o)
 .comment       0x0000000000000000       0x24 c:/msys64/opt/devkitpro/devkitppc/bin/../lib/gcc/powerpc-eabi/10.2.0/../../../../powerpc-eabi/lib\libc.a(lib_a-fiprintf.o)
 .eh_frame      0x0000000000000000       0x54 c:/msys64/opt/devkitpro/devkitppc/bin/../lib/gcc/powerpc-eabi/10.2.0/../../../../powerpc-eabi/lib\libc.a(lib_a-fiprintf.o)
 .gnu.attributes
                0x0000000000000000       0x10 c:/msys64/opt/devkitpro/devkitppc/bin/../lib/gcc/powerpc-eabi/10.2.0/../../../../powerpc-eabi/lib\libc.a(lib_a-fiprintf.o)
 .text          0x0000000000000000        0x0 c:/msys64/opt/devkitpro/devkitppc/bin/../lib/gcc/powerpc-eabi/10.2.0/../../../../powerpc-eabi/lib\libc.a(lib_a-getenv_r.o)
 .data          0x0000000000000000        0x0 c:/msys64/opt/devkitpro/devkitppc/bin/../lib/gcc/powerpc-eabi/10.2.0/../../../../powerpc-eabi/lib\libc.a(lib_a-getenv_r.o)
 .bss           0x0000000000000000        0x0 c:/msys64/opt/devkitpro/devkitppc/bin/../lib/gcc/powerpc-eabi/10.2.0/../../../../powerpc-eabi/lib\libc.a(lib_a-getenv_r.o)
 .text._findenv_r
                0x0000000000000000      0x140 c:/msys64/opt/devkitpro/devkitppc/bin/../lib/gcc/powerpc-eabi/10.2.0/../../../../powerpc-eabi/lib\libc.a(lib_a-getenv_r.o)
 .text._getenv_r
                0x0000000000000000       0x24 c:/msys64/opt/devkitpro/devkitppc/bin/../lib/gcc/powerpc-eabi/10.2.0/../../../../powerpc-eabi/lib\libc.a(lib_a-getenv_r.o)
 .comment       0x0000000000000000       0x24 c:/msys64/opt/devkitpro/devkitppc/bin/../lib/gcc/powerpc-eabi/10.2.0/../../../../powerpc-eabi/lib\libc.a(lib_a-getenv_r.o)
 .eh_frame      0x0000000000000000       0xa8 c:/msys64/opt/devkitpro/devkitppc/bin/../lib/gcc/powerpc-eabi/10.2.0/../../../../powerpc-eabi/lib\libc.a(lib_a-getenv_r.o)
 .text          0x0000000000000000        0x0 c:/msys64/opt/devkitpro/devkitppc/bin/../lib/gcc/powerpc-eabi/10.2.0/../../../../powerpc-eabi/lib\libc.a(lib_a-memmove.o)
 .data          0x0000000000000000        0x0 c:/msys64/opt/devkitpro/devkitppc/bin/../lib/gcc/powerpc-eabi/10.2.0/../../../../powerpc-eabi/lib\libc.a(lib_a-memmove.o)
 .bss           0x0000000000000000        0x0 c:/msys64/opt/devkitpro/devkitppc/bin/../lib/gcc/powerpc-eabi/10.2.0/../../../../powerpc-eabi/lib\libc.a(lib_a-memmove.o)
 .comment       0x0000000000000000       0x24 c:/msys64/opt/devkitpro/devkitppc/bin/../lib/gcc/powerpc-eabi/10.2.0/../../../../powerpc-eabi/lib\libc.a(lib_a-memmove.o)
 .eh_frame      0x0000000000000000       0x28 c:/msys64/opt/devkitpro/devkitppc/bin/../lib/gcc/powerpc-eabi/10.2.0/../../../../powerpc-eabi/lib\libc.a(lib_a-memmove.o)
 .text          0x0000000000000000        0x0 c:/msys64/opt/devkitpro/devkitppc/bin/../lib/gcc/powerpc-eabi/10.2.0/../../../../powerpc-eabi/lib\libc.a(lib_a-reallocr.o)
 .data          0x0000000000000000        0x0 c:/msys64/opt/devkitpro/devkitppc/bin/../lib/gcc/powerpc-eabi/10.2.0/../../../../powerpc-eabi/lib\libc.a(lib_a-reallocr.o)
 .bss           0x0000000000000000        0x0 c:/msys64/opt/devkitpro/devkitppc/bin/../lib/gcc/powerpc-eabi/10.2.0/../../../../powerpc-eabi/lib\libc.a(lib_a-reallocr.o)
 .comment       0x0000000000000000       0x24 c:/msys64/opt/devkitpro/devkitppc/bin/../lib/gcc/powerpc-eabi/10.2.0/../../../../powerpc-eabi/lib\libc.a(lib_a-reallocr.o)
 .eh_frame      0x0000000000000000      0x124 c:/msys64/opt/devkitpro/devkitppc/bin/../lib/gcc/powerpc-eabi/10.2.0/../../../../powerpc-eabi/lib\libc.a(lib_a-reallocr.o)
 .text          0x0000000000000000        0x0 c:/msys64/opt/devkitpro/devkitppc/bin/../lib/gcc/powerpc-eabi/10.2.0/../../../../powerpc-eabi/lib\libc.a(lib_a-vfiprintf.o)
 .data          0x0000000000000000        0x0 c:/msys64/opt/devkitpro/devkitppc/bin/../lib/gcc/powerpc-eabi/10.2.0/../../../../powerpc-eabi/lib\libc.a(lib_a-vfiprintf.o)
 .bss           0x0000000000000000        0x0 c:/msys64/opt/devkitpro/devkitppc/bin/../lib/gcc/powerpc-eabi/10.2.0/../../../../powerpc-eabi/lib\libc.a(lib_a-vfiprintf.o)
 .text.__sprint_r
                0x0000000000000000       0x1c c:/msys64/opt/devkitpro/devkitppc/bin/../lib/gcc/powerpc-eabi/10.2.0/../../../../powerpc-eabi/lib\libc.a(lib_a-vfiprintf.o)
 .text.vfiprintf
                0x0000000000000000       0x20 c:/msys64/opt/devkitpro/devkitppc/bin/../lib/gcc/powerpc-eabi/10.2.0/../../../../powerpc-eabi/lib\libc.a(lib_a-vfiprintf.o)
 .comment       0x0000000000000000       0x24 c:/msys64/opt/devkitpro/devkitppc/bin/../lib/gcc/powerpc-eabi/10.2.0/../../../../powerpc-eabi/lib\libc.a(lib_a-vfiprintf.o)
 .eh_frame      0x0000000000000000      0x2d0 c:/msys64/opt/devkitpro/devkitppc/bin/../lib/gcc/powerpc-eabi/10.2.0/../../../../powerpc-eabi/lib\libc.a(lib_a-vfiprintf.o)
 .text          0x0000000000000000        0x0 c:/msys64/opt/devkitpro/devkitppc/bin/../lib/gcc/powerpc-eabi/10.2.0/../../../../powerpc-eabi/lib\libc.a(lib_a-wsetup.o)
 .data          0x0000000000000000        0x0 c:/msys64/opt/devkitpro/devkitppc/bin/../lib/gcc/powerpc-eabi/10.2.0/../../../../powerpc-eabi/lib\libc.a(lib_a-wsetup.o)
 .bss           0x0000000000000000        0x0 c:/msys64/opt/devkitpro/devkitppc/bin/../lib/gcc/powerpc-eabi/10.2.0/../../../../powerpc-eabi/lib\libc.a(lib_a-wsetup.o)
 .comment       0x0000000000000000       0x24 c:/msys64/opt/devkitpro/devkitppc/bin/../lib/gcc/powerpc-eabi/10.2.0/../../../../powerpc-eabi/lib\libc.a(lib_a-wsetup.o)
 .eh_frame      0x0000000000000000       0x58 c:/msys64/opt/devkitpro/devkitppc/bin/../lib/gcc/powerpc-eabi/10.2.0/../../../../powerpc-eabi/lib\libc.a(lib_a-wsetup.o)
 .text          0x0000000000000000        0x0 c:/msys64/opt/devkitpro/devkitppc/bin/../lib/gcc/powerpc-eabi/10.2.0/../../../../powerpc-eabi/lib\libc.a(lib_a-abort.o)
 .data          0x0000000000000000        0x0 c:/msys64/opt/devkitpro/devkitppc/bin/../lib/gcc/powerpc-eabi/10.2.0/../../../../powerpc-eabi/lib\libc.a(lib_a-abort.o)
 .bss           0x0000000000000000        0x0 c:/msys64/opt/devkitpro/devkitppc/bin/../lib/gcc/powerpc-eabi/10.2.0/../../../../powerpc-eabi/lib\libc.a(lib_a-abort.o)
 .comment       0x0000000000000000       0x24 c:/msys64/opt/devkitpro/devkitppc/bin/../lib/gcc/powerpc-eabi/10.2.0/../../../../powerpc-eabi/lib\libc.a(lib_a-abort.o)
 .eh_frame      0x0000000000000000       0x2c c:/msys64/opt/devkitpro/devkitppc/bin/../lib/gcc/powerpc-eabi/10.2.0/../../../../powerpc-eabi/lib\libc.a(lib_a-abort.o)
 .text          0x0000000000000000        0x0 c:/msys64/opt/devkitpro/devkitppc/bin/../lib/gcc/powerpc-eabi/10.2.0/../../../../powerpc-eabi/lib\libc.a(lib_a-environ.o)
 .data          0x0000000000000000        0x0 c:/msys64/opt/devkitpro/devkitppc/bin/../lib/gcc/powerpc-eabi/10.2.0/../../../../powerpc-eabi/lib\libc.a(lib_a-environ.o)
 .bss           0x0000000000000000        0x0 c:/msys64/opt/devkitpro/devkitppc/bin/../lib/gcc/powerpc-eabi/10.2.0/../../../../powerpc-eabi/lib\libc.a(lib_a-environ.o)
 .bss.initial_env
                0x0000000000000000        0x4 c:/msys64/opt/devkitpro/devkitppc/bin/../lib/gcc/powerpc-eabi/10.2.0/../../../../powerpc-eabi/lib\libc.a(lib_a-environ.o)
 .sdata.environ
                0x0000000000000000        0x4 c:/msys64/opt/devkitpro/devkitppc/bin/../lib/gcc/powerpc-eabi/10.2.0/../../../../powerpc-eabi/lib\libc.a(lib_a-environ.o)
 .comment       0x0000000000000000       0x24 c:/msys64/opt/devkitpro/devkitppc/bin/../lib/gcc/powerpc-eabi/10.2.0/../../../../powerpc-eabi/lib\libc.a(lib_a-environ.o)
 .text          0x0000000000000000        0x0 c:/msys64/opt/devkitpro/devkitppc/bin/../lib/gcc/powerpc-eabi/10.2.0/../../../../powerpc-eabi/lib\libc.a(lib_a-envlock.o)
 .data          0x0000000000000000        0x0 c:/msys64/opt/devkitpro/devkitppc/bin/../lib/gcc/powerpc-eabi/10.2.0/../../../../powerpc-eabi/lib\libc.a(lib_a-envlock.o)
 .bss           0x0000000000000000        0x0 c:/msys64/opt/devkitpro/devkitppc/bin/../lib/gcc/powerpc-eabi/10.2.0/../../../../powerpc-eabi/lib\libc.a(lib_a-envlock.o)
 .text.__env_lock
                0x0000000000000000       0x58 c:/msys64/opt/devkitpro/devkitppc/bin/../lib/gcc/powerpc-eabi/10.2.0/../../../../powerpc-eabi/lib\libc.a(lib_a-envlock.o)
 .text.__env_unlock
                0x0000000000000000        0xc c:/msys64/opt/devkitpro/devkitppc/bin/../lib/gcc/powerpc-eabi/10.2.0/../../../../powerpc-eabi/lib\libc.a(lib_a-envlock.o)
 .bss.__env_recursive_mutex
                0x0000000000000000        0x4 c:/msys64/opt/devkitpro/devkitppc/bin/../lib/gcc/powerpc-eabi/10.2.0/../../../../powerpc-eabi/lib\libc.a(lib_a-envlock.o)
 .comment       0x0000000000000000       0x24 c:/msys64/opt/devkitpro/devkitppc/bin/../lib/gcc/powerpc-eabi/10.2.0/../../../../powerpc-eabi/lib\libc.a(lib_a-envlock.o)
 .eh_frame      0x0000000000000000       0x58 c:/msys64/opt/devkitpro/devkitppc/bin/../lib/gcc/powerpc-eabi/10.2.0/../../../../powerpc-eabi/lib\libc.a(lib_a-envlock.o)
 .text          0x0000000000000000        0x0 c:/msys64/opt/devkitpro/devkitppc/bin/../lib/gcc/powerpc-eabi/10.2.0/../../../../powerpc-eabi/lib\libc.a(lib_a-fflush.o)
 .data          0x0000000000000000        0x0 c:/msys64/opt/devkitpro/devkitppc/bin/../lib/gcc/powerpc-eabi/10.2.0/../../../../powerpc-eabi/lib\libc.a(lib_a-fflush.o)
 .bss           0x0000000000000000        0x0 c:/msys64/opt/devkitpro/devkitppc/bin/../lib/gcc/powerpc-eabi/10.2.0/../../../../powerpc-eabi/lib\libc.a(lib_a-fflush.o)
 .text.fflush   0x0000000000000000      0x104 c:/msys64/opt/devkitpro/devkitppc/bin/../lib/gcc/powerpc-eabi/10.2.0/../../../../powerpc-eabi/lib\libc.a(lib_a-fflush.o)
 .comment       0x0000000000000000       0x24 c:/msys64/opt/devkitpro/devkitppc/bin/../lib/gcc/powerpc-eabi/10.2.0/../../../../powerpc-eabi/lib\libc.a(lib_a-fflush.o)
 .eh_frame      0x0000000000000000      0x164 c:/msys64/opt/devkitpro/devkitppc/bin/../lib/gcc/powerpc-eabi/10.2.0/../../../../powerpc-eabi/lib\libc.a(lib_a-fflush.o)
 .text          0x0000000000000000        0x0 c:/msys64/opt/devkitpro/devkitppc/bin/../lib/gcc/powerpc-eabi/10.2.0/../../../../powerpc-eabi/lib\libc.a(lib_a-findfp.o)
 .data          0x0000000000000000        0x0 c:/msys64/opt/devkitpro/devkitppc/bin/../lib/gcc/powerpc-eabi/10.2.0/../../../../powerpc-eabi/lib\libc.a(lib_a-findfp.o)
 .bss           0x0000000000000000        0x0 c:/msys64/opt/devkitpro/devkitppc/bin/../lib/gcc/powerpc-eabi/10.2.0/../../../../powerpc-eabi/lib\libc.a(lib_a-findfp.o)
 .text.__fp_lock
                0x0000000000000000       0x44 c:/msys64/opt/devkitpro/devkitppc/bin/../lib/gcc/powerpc-eabi/10.2.0/../../../../powerpc-eabi/lib\libc.a(lib_a-findfp.o)
 .text.__fp_unlock
                0x0000000000000000       0x44 c:/msys64/opt/devkitpro/devkitppc/bin/../lib/gcc/powerpc-eabi/10.2.0/../../../../powerpc-eabi/lib\libc.a(lib_a-findfp.o)
 .text.__sfmoreglue
                0x0000000000000000       0x74 c:/msys64/opt/devkitpro/devkitppc/bin/../lib/gcc/powerpc-eabi/10.2.0/../../../../powerpc-eabi/lib\libc.a(lib_a-findfp.o)
 .text._cleanup
                0x0000000000000000       0x14 c:/msys64/opt/devkitpro/devkitppc/bin/../lib/gcc/powerpc-eabi/10.2.0/../../../../powerpc-eabi/lib\libc.a(lib_a-findfp.o)
 .text.__sfp    0x0000000000000000      0x1d0 c:/msys64/opt/devkitpro/devkitppc/bin/../lib/gcc/powerpc-eabi/10.2.0/../../../../powerpc-eabi/lib\libc.a(lib_a-findfp.o)
 .text.__sinit_lock_acquire
                0x0000000000000000       0x58 c:/msys64/opt/devkitpro/devkitppc/bin/../lib/gcc/powerpc-eabi/10.2.0/../../../../powerpc-eabi/lib\libc.a(lib_a-findfp.o)
 .text.__sinit_lock_release
                0x0000000000000000        0xc c:/msys64/opt/devkitpro/devkitppc/bin/../lib/gcc/powerpc-eabi/10.2.0/../../../../powerpc-eabi/lib\libc.a(lib_a-findfp.o)
 .text.__fp_lock_all
                0x0000000000000000       0x88 c:/msys64/opt/devkitpro/devkitppc/bin/../lib/gcc/powerpc-eabi/10.2.0/../../../../powerpc-eabi/lib\libc.a(lib_a-findfp.o)
 .text.__fp_unlock_all
                0x0000000000000000       0x38 c:/msys64/opt/devkitpro/devkitppc/bin/../lib/gcc/powerpc-eabi/10.2.0/../../../../powerpc-eabi/lib\libc.a(lib_a-findfp.o)
 .comment       0x0000000000000000       0x24 c:/msys64/opt/devkitpro/devkitppc/bin/../lib/gcc/powerpc-eabi/10.2.0/../../../../powerpc-eabi/lib\libc.a(lib_a-findfp.o)
 .eh_frame      0x0000000000000000      0x204 c:/msys64/opt/devkitpro/devkitppc/bin/../lib/gcc/powerpc-eabi/10.2.0/../../../../powerpc-eabi/lib\libc.a(lib_a-findfp.o)
 .text          0x0000000000000000        0x0 c:/msys64/opt/devkitpro/devkitppc/bin/../lib/gcc/powerpc-eabi/10.2.0/../../../../powerpc-eabi/lib\libc.a(lib_a-fputwc.o)
 .data          0x0000000000000000        0x0 c:/msys64/opt/devkitpro/devkitppc/bin/../lib/gcc/powerpc-eabi/10.2.0/../../../../powerpc-eabi/lib\libc.a(lib_a-fputwc.o)
 .bss           0x0000000000000000        0x0 c:/msys64/opt/devkitpro/devkitppc/bin/../lib/gcc/powerpc-eabi/10.2.0/../../../../powerpc-eabi/lib\libc.a(lib_a-fputwc.o)
 .text.fputwc   0x0000000000000000      0x110 c:/msys64/opt/devkitpro/devkitppc/bin/../lib/gcc/powerpc-eabi/10.2.0/../../../../powerpc-eabi/lib\libc.a(lib_a-fputwc.o)
 .comment       0x0000000000000000       0x24 c:/msys64/opt/devkitpro/devkitppc/bin/../lib/gcc/powerpc-eabi/10.2.0/../../../../powerpc-eabi/lib\libc.a(lib_a-fputwc.o)
 .eh_frame      0x0000000000000000       0xe8 c:/msys64/opt/devkitpro/devkitppc/bin/../lib/gcc/powerpc-eabi/10.2.0/../../../../powerpc-eabi/lib\libc.a(lib_a-fputwc.o)
 .text          0x0000000000000000        0x0 c:/msys64/opt/devkitpro/devkitppc/bin/../lib/gcc/powerpc-eabi/10.2.0/../../../../powerpc-eabi/lib\libc.a(lib_a-fvwrite.o)
 .data          0x0000000000000000        0x0 c:/msys64/opt/devkitpro/devkitppc/bin/../lib/gcc/powerpc-eabi/10.2.0/../../../../powerpc-eabi/lib\libc.a(lib_a-fvwrite.o)
 .bss           0x0000000000000000        0x0 c:/msys64/opt/devkitpro/devkitppc/bin/../lib/gcc/powerpc-eabi/10.2.0/../../../../powerpc-eabi/lib\libc.a(lib_a-fvwrite.o)
 .comment       0x0000000000000000       0x24 c:/msys64/opt/devkitpro/devkitppc/bin/../lib/gcc/powerpc-eabi/10.2.0/../../../../powerpc-eabi/lib\libc.a(lib_a-fvwrite.o)
 .eh_frame      0x0000000000000000       0xfc c:/msys64/opt/devkitpro/devkitppc/bin/../lib/gcc/powerpc-eabi/10.2.0/../../../../powerpc-eabi/lib\libc.a(lib_a-fvwrite.o)
 .text          0x0000000000000000        0x0 c:/msys64/opt/devkitpro/devkitppc/bin/../lib/gcc/powerpc-eabi/10.2.0/../../../../powerpc-eabi/lib\libc.a(lib_a-fwalk.o)
 .data          0x0000000000000000        0x0 c:/msys64/opt/devkitpro/devkitppc/bin/../lib/gcc/powerpc-eabi/10.2.0/../../../../powerpc-eabi/lib\libc.a(lib_a-fwalk.o)
 .bss           0x0000000000000000        0x0 c:/msys64/opt/devkitpro/devkitppc/bin/../lib/gcc/powerpc-eabi/10.2.0/../../../../powerpc-eabi/lib\libc.a(lib_a-fwalk.o)
 .text._fwalk   0x0000000000000000       0xa4 c:/msys64/opt/devkitpro/devkitppc/bin/../lib/gcc/powerpc-eabi/10.2.0/../../../../powerpc-eabi/lib\libc.a(lib_a-fwalk.o)
 .comment       0x0000000000000000       0x24 c:/msys64/opt/devkitpro/devkitppc/bin/../lib/gcc/powerpc-eabi/10.2.0/../../../../powerpc-eabi/lib\libc.a(lib_a-fwalk.o)
 .eh_frame      0x0000000000000000       0x78 c:/msys64/opt/devkitpro/devkitppc/bin/../lib/gcc/powerpc-eabi/10.2.0/../../../../powerpc-eabi/lib\libc.a(lib_a-fwalk.o)
 .text          0x0000000000000000        0x0 c:/msys64/opt/devkitpro/devkitppc/bin/../lib/gcc/powerpc-eabi/10.2.0/../../../../powerpc-eabi/lib\libc.a(lib_a-makebuf.o)
 .data          0x0000000000000000        0x0 c:/msys64/opt/devkitpro/devkitppc/bin/../lib/gcc/powerpc-eabi/10.2.0/../../../../powerpc-eabi/lib\libc.a(lib_a-makebuf.o)
 .bss           0x0000000000000000        0x0 c:/msys64/opt/devkitpro/devkitppc/bin/../lib/gcc/powerpc-eabi/10.2.0/../../../../powerpc-eabi/lib\libc.a(lib_a-makebuf.o)
 .text.__swhatbuf_r
                0x0000000000000000       0xdc c:/msys64/opt/devkitpro/devkitppc/bin/../lib/gcc/powerpc-eabi/10.2.0/../../../../powerpc-eabi/lib\libc.a(lib_a-makebuf.o)
 .comment       0x0000000000000000       0x24 c:/msys64/opt/devkitpro/devkitppc/bin/../lib/gcc/powerpc-eabi/10.2.0/../../../../powerpc-eabi/lib\libc.a(lib_a-makebuf.o)
 .eh_frame      0x0000000000000000       0xa0 c:/msys64/opt/devkitpro/devkitppc/bin/../lib/gcc/powerpc-eabi/10.2.0/../../../../powerpc-eabi/lib\libc.a(lib_a-makebuf.o)
 .text          0x0000000000000000        0x0 c:/msys64/opt/devkitpro/devkitppc/bin/../lib/gcc/powerpc-eabi/10.2.0/../../../../powerpc-eabi/lib\libc.a(lib_a-signal.o)
 .data          0x0000000000000000        0x0 c:/msys64/opt/devkitpro/devkitppc/bin/../lib/gcc/powerpc-eabi/10.2.0/../../../../powerpc-eabi/lib\libc.a(lib_a-signal.o)
 .bss           0x0000000000000000        0x0 c:/msys64/opt/devkitpro/devkitppc/bin/../lib/gcc/powerpc-eabi/10.2.0/../../../../powerpc-eabi/lib\libc.a(lib_a-signal.o)
 .text._init_signal_r
                0x0000000000000000       0x7c c:/msys64/opt/devkitpro/devkitppc/bin/../lib/gcc/powerpc-eabi/10.2.0/../../../../powerpc-eabi/lib\libc.a(lib_a-signal.o)
 .text._signal_r
                0x0000000000000000       0xc4 c:/msys64/opt/devkitpro/devkitppc/bin/../lib/gcc/powerpc-eabi/10.2.0/../../../../powerpc-eabi/lib\libc.a(lib_a-signal.o)
 .text._raise_r
                0x0000000000000000       0xf4 c:/msys64/opt/devkitpro/devkitppc/bin/../lib/gcc/powerpc-eabi/10.2.0/../../../../powerpc-eabi/lib\libc.a(lib_a-signal.o)
 .text.__sigtramp_r
                0x0000000000000000      0x118 c:/msys64/opt/devkitpro/devkitppc/bin/../lib/gcc/powerpc-eabi/10.2.0/../../../../powerpc-eabi/lib\libc.a(lib_a-signal.o)
 .text.signal   0x0000000000000000       0xd4 c:/msys64/opt/devkitpro/devkitppc/bin/../lib/gcc/powerpc-eabi/10.2.0/../../../../powerpc-eabi/lib\libc.a(lib_a-signal.o)
 .text._init_signal
                0x0000000000000000       0x88 c:/msys64/opt/devkitpro/devkitppc/bin/../lib/gcc/powerpc-eabi/10.2.0/../../../../powerpc-eabi/lib\libc.a(lib_a-signal.o)
 .text.__sigtramp
                0x0000000000000000      0x120 c:/msys64/opt/devkitpro/devkitppc/bin/../lib/gcc/powerpc-eabi/10.2.0/../../../../powerpc-eabi/lib\libc.a(lib_a-signal.o)
 .comment       0x0000000000000000       0x24 c:/msys64/opt/devkitpro/devkitppc/bin/../lib/gcc/powerpc-eabi/10.2.0/../../../../powerpc-eabi/lib\libc.a(lib_a-signal.o)
 .eh_frame      0x0000000000000000      0x26c c:/msys64/opt/devkitpro/devkitppc/bin/../lib/gcc/powerpc-eabi/10.2.0/../../../../powerpc-eabi/lib\libc.a(lib_a-signal.o)
 .text          0x0000000000000000        0x0 c:/msys64/opt/devkitpro/devkitppc/bin/../lib/gcc/powerpc-eabi/10.2.0/../../../../powerpc-eabi/lib\libc.a(lib_a-stdio.o)
 .data          0x0000000000000000        0x0 c:/msys64/opt/devkitpro/devkitppc/bin/../lib/gcc/powerpc-eabi/10.2.0/../../../../powerpc-eabi/lib\libc.a(lib_a-stdio.o)
 .bss           0x0000000000000000        0x0 c:/msys64/opt/devkitpro/devkitppc/bin/../lib/gcc/powerpc-eabi/10.2.0/../../../../powerpc-eabi/lib\libc.a(lib_a-stdio.o)
 .text.__seofread
                0x0000000000000000        0x8 c:/msys64/opt/devkitpro/devkitppc/bin/../lib/gcc/powerpc-eabi/10.2.0/../../../../powerpc-eabi/lib\libc.a(lib_a-stdio.o)
 .comment       0x0000000000000000       0x24 c:/msys64/opt/devkitpro/devkitppc/bin/../lib/gcc/powerpc-eabi/10.2.0/../../../../powerpc-eabi/lib\libc.a(lib_a-stdio.o)
 .eh_frame      0x0000000000000000       0xd0 c:/msys64/opt/devkitpro/devkitppc/bin/../lib/gcc/powerpc-eabi/10.2.0/../../../../powerpc-eabi/lib\libc.a(lib_a-stdio.o)
 .text          0x0000000000000000        0x0 c:/msys64/opt/devkitpro/devkitppc/bin/../lib/gcc/powerpc-eabi/10.2.0/../../../../powerpc-eabi/lib\libc.a(lib_a-wbuf.o)
 .data          0x0000000000000000        0x0 c:/msys64/opt/devkitpro/devkitppc/bin/../lib/gcc/powerpc-eabi/10.2.0/../../../../powerpc-eabi/lib\libc.a(lib_a-wbuf.o)
 .bss           0x0000000000000000        0x0 c:/msys64/opt/devkitpro/devkitppc/bin/../lib/gcc/powerpc-eabi/10.2.0/../../../../powerpc-eabi/lib\libc.a(lib_a-wbuf.o)
 .text.__swbuf  0x0000000000000000       0x18 c:/msys64/opt/devkitpro/devkitppc/bin/../lib/gcc/powerpc-eabi/10.2.0/../../../../powerpc-eabi/lib\libc.a(lib_a-wbuf.o)
 .comment       0x0000000000000000       0x24 c:/msys64/opt/devkitpro/devkitppc/bin/../lib/gcc/powerpc-eabi/10.2.0/../../../../powerpc-eabi/lib\libc.a(lib_a-wbuf.o)
 .eh_frame      0x0000000000000000       0x68 c:/msys64/opt/devkitpro/devkitppc/bin/../lib/gcc/powerpc-eabi/10.2.0/../../../../powerpc-eabi/lib\libc.a(lib_a-wbuf.o)
 .text          0x0000000000000000        0x0 c:/msys64/opt/devkitpro/devkitppc/bin/../lib/gcc/powerpc-eabi/10.2.0/../../../../powerpc-eabi/lib\libc.a(lib_a-fclose.o)
 .data          0x0000000000000000        0x0 c:/msys64/opt/devkitpro/devkitppc/bin/../lib/gcc/powerpc-eabi/10.2.0/../../../../powerpc-eabi/lib\libc.a(lib_a-fclose.o)
 .bss           0x0000000000000000        0x0 c:/msys64/opt/devkitpro/devkitppc/bin/../lib/gcc/powerpc-eabi/10.2.0/../../../../powerpc-eabi/lib\libc.a(lib_a-fclose.o)
 .text.fclose   0x0000000000000000       0x10 c:/msys64/opt/devkitpro/devkitppc/bin/../lib/gcc/powerpc-eabi/10.2.0/../../../../powerpc-eabi/lib\libc.a(lib_a-fclose.o)
 .comment       0x0000000000000000       0x24 c:/msys64/opt/devkitpro/devkitppc/bin/../lib/gcc/powerpc-eabi/10.2.0/../../../../powerpc-eabi/lib\libc.a(lib_a-fclose.o)
 .eh_frame      0x0000000000000000       0x9c c:/msys64/opt/devkitpro/devkitppc/bin/../lib/gcc/powerpc-eabi/10.2.0/../../../../powerpc-eabi/lib\libc.a(lib_a-fclose.o)
 .text          0x0000000000000000        0x0 c:/msys64/opt/devkitpro/devkitppc/bin/../lib/gcc/powerpc-eabi/10.2.0/../../../../powerpc-eabi/lib\libsysbase.a(close.o)
 .data          0x0000000000000000        0x0 c:/msys64/opt/devkitpro/devkitppc/bin/../lib/gcc/powerpc-eabi/10.2.0/../../../../powerpc-eabi/lib\libsysbase.a(close.o)
 .bss           0x0000000000000000        0x0 c:/msys64/opt/devkitpro/devkitppc/bin/../lib/gcc/powerpc-eabi/10.2.0/../../../../powerpc-eabi/lib\libsysbase.a(close.o)
 .comment       0x0000000000000000       0x24 c:/msys64/opt/devkitpro/devkitppc/bin/../lib/gcc/powerpc-eabi/10.2.0/../../../../powerpc-eabi/lib\libsysbase.a(close.o)
 .eh_frame      0x0000000000000000       0x68 c:/msys64/opt/devkitpro/devkitppc/bin/../lib/gcc/powerpc-eabi/10.2.0/../../../../powerpc-eabi/lib\libsysbase.a(close.o)
 .text          0x0000000000000000        0x0 c:/msys64/opt/devkitpro/devkitppc/bin/../lib/gcc/powerpc-eabi/10.2.0/../../../../powerpc-eabi/lib\libsysbase.a(fstat.o)
 .data          0x0000000000000000        0x0 c:/msys64/opt/devkitpro/devkitppc/bin/../lib/gcc/powerpc-eabi/10.2.0/../../../../powerpc-eabi/lib\libsysbase.a(fstat.o)
 .bss           0x0000000000000000        0x0 c:/msys64/opt/devkitpro/devkitppc/bin/../lib/gcc/powerpc-eabi/10.2.0/../../../../powerpc-eabi/lib\libsysbase.a(fstat.o)
 .comment       0x0000000000000000       0x24 c:/msys64/opt/devkitpro/devkitppc/bin/../lib/gcc/powerpc-eabi/10.2.0/../../../../powerpc-eabi/lib\libsysbase.a(fstat.o)
 .eh_frame      0x0000000000000000       0x48 c:/msys64/opt/devkitpro/devkitppc/bin/../lib/gcc/powerpc-eabi/10.2.0/../../../../powerpc-eabi/lib\libsysbase.a(fstat.o)
 .text          0x0000000000000000        0x0 c:/msys64/opt/devkitpro/devkitppc/bin/../lib/gcc/powerpc-eabi/10.2.0/../../../../powerpc-eabi/lib\libsysbase.a(getpid.o)
 .data          0x0000000000000000        0x0 c:/msys64/opt/devkitpro/devkitppc/bin/../lib/gcc/powerpc-eabi/10.2.0/../../../../powerpc-eabi/lib\libsysbase.a(getpid.o)
 .bss           0x0000000000000000        0x0 c:/msys64/opt/devkitpro/devkitppc/bin/../lib/gcc/powerpc-eabi/10.2.0/../../../../powerpc-eabi/lib\libsysbase.a(getpid.o)
 .comment       0x0000000000000000       0x24 c:/msys64/opt/devkitpro/devkitppc/bin/../lib/gcc/powerpc-eabi/10.2.0/../../../../powerpc-eabi/lib\libsysbase.a(getpid.o)
 .eh_frame      0x0000000000000000       0x28 c:/msys64/opt/devkitpro/devkitppc/bin/../lib/gcc/powerpc-eabi/10.2.0/../../../../powerpc-eabi/lib\libsysbase.a(getpid.o)
 .text          0x0000000000000000        0x0 c:/msys64/opt/devkitpro/devkitppc/bin/../lib/gcc/powerpc-eabi/10.2.0/../../../../powerpc-eabi/lib\libsysbase.a(isatty.o)
 .data          0x0000000000000000        0x0 c:/msys64/opt/devkitpro/devkitppc/bin/../lib/gcc/powerpc-eabi/10.2.0/../../../../powerpc-eabi/lib\libsysbase.a(isatty.o)
 .bss           0x0000000000000000        0x0 c:/msys64/opt/devkitpro/devkitppc/bin/../lib/gcc/powerpc-eabi/10.2.0/../../../../powerpc-eabi/lib\libsysbase.a(isatty.o)
 .comment       0x0000000000000000       0x24 c:/msys64/opt/devkitpro/devkitppc/bin/../lib/gcc/powerpc-eabi/10.2.0/../../../../powerpc-eabi/lib\libsysbase.a(isatty.o)
 .eh_frame      0x0000000000000000       0x28 c:/msys64/opt/devkitpro/devkitppc/bin/../lib/gcc/powerpc-eabi/10.2.0/../../../../powerpc-eabi/lib\libsysbase.a(isatty.o)
 .text          0x0000000000000000        0x0 c:/msys64/opt/devkitpro/devkitppc/bin/../lib/gcc/powerpc-eabi/10.2.0/../../../../powerpc-eabi/lib\libsysbase.a(kill.o)
 .data          0x0000000000000000        0x0 c:/msys64/opt/devkitpro/devkitppc/bin/../lib/gcc/powerpc-eabi/10.2.0/../../../../powerpc-eabi/lib\libsysbase.a(kill.o)
 .bss           0x0000000000000000        0x0 c:/msys64/opt/devkitpro/devkitppc/bin/../lib/gcc/powerpc-eabi/10.2.0/../../../../powerpc-eabi/lib\libsysbase.a(kill.o)
 .comment       0x0000000000000000       0x24 c:/msys64/opt/devkitpro/devkitppc/bin/../lib/gcc/powerpc-eabi/10.2.0/../../../../powerpc-eabi/lib\libsysbase.a(kill.o)
 .eh_frame      0x0000000000000000       0x28 c:/msys64/opt/devkitpro/devkitppc/bin/../lib/gcc/powerpc-eabi/10.2.0/../../../../powerpc-eabi/lib\libsysbase.a(kill.o)
 .text          0x0000000000000000        0x0 c:/msys64/opt/devkitpro/devkitppc/bin/../lib/gcc/powerpc-eabi/10.2.0/../../../../powerpc-eabi/lib\libsysbase.a(lseek.o)
 .data          0x0000000000000000        0x0 c:/msys64/opt/devkitpro/devkitppc/bin/../lib/gcc/powerpc-eabi/10.2.0/../../../../powerpc-eabi/lib\libsysbase.a(lseek.o)
 .bss           0x0000000000000000        0x0 c:/msys64/opt/devkitpro/devkitppc/bin/../lib/gcc/powerpc-eabi/10.2.0/../../../../powerpc-eabi/lib\libsysbase.a(lseek.o)
 .comment       0x0000000000000000       0x24 c:/msys64/opt/devkitpro/devkitppc/bin/../lib/gcc/powerpc-eabi/10.2.0/../../../../powerpc-eabi/lib\libsysbase.a(lseek.o)
 .eh_frame      0x0000000000000000       0x50 c:/msys64/opt/devkitpro/devkitppc/bin/../lib/gcc/powerpc-eabi/10.2.0/../../../../powerpc-eabi/lib\libsysbase.a(lseek.o)
 .text          0x0000000000000000        0x0 c:/msys64/opt/devkitpro/devkitppc/bin/../lib/gcc/powerpc-eabi/10.2.0/../../../../powerpc-eabi/lib\libsysbase.a(read.o)
 .data          0x0000000000000000        0x0 c:/msys64/opt/devkitpro/devkitppc/bin/../lib/gcc/powerpc-eabi/10.2.0/../../../../powerpc-eabi/lib\libsysbase.a(read.o)
 .bss           0x0000000000000000        0x0 c:/msys64/opt/devkitpro/devkitppc/bin/../lib/gcc/powerpc-eabi/10.2.0/../../../../powerpc-eabi/lib\libsysbase.a(read.o)
 .comment       0x0000000000000000       0x24 c:/msys64/opt/devkitpro/devkitppc/bin/../lib/gcc/powerpc-eabi/10.2.0/../../../../powerpc-eabi/lib\libsysbase.a(read.o)
 .eh_frame      0x0000000000000000       0x4c c:/msys64/opt/devkitpro/devkitppc/bin/../lib/gcc/powerpc-eabi/10.2.0/../../../../powerpc-eabi/lib\libsysbase.a(read.o)
 .text          0x0000000000000000        0x0 c:/msys64/opt/devkitpro/devkitppc/bin/../lib/gcc/powerpc-eabi/10.2.0/../../../../powerpc-eabi/lib\libsysbase.a(sbrk.o)
 .data          0x0000000000000000        0x0 c:/msys64/opt/devkitpro/devkitppc/bin/../lib/gcc/powerpc-eabi/10.2.0/../../../../powerpc-eabi/lib\libsysbase.a(sbrk.o)
 .bss           0x0000000000000000        0x0 c:/msys64/opt/devkitpro/devkitppc/bin/../lib/gcc/powerpc-eabi/10.2.0/../../../../powerpc-eabi/lib\libsysbase.a(sbrk.o)
 .comment       0x0000000000000000       0x24 c:/msys64/opt/devkitpro/devkitppc/bin/../lib/gcc/powerpc-eabi/10.2.0/../../../../powerpc-eabi/lib\libsysbase.a(sbrk.o)
 .eh_frame      0x0000000000000000       0x28 c:/msys64/opt/devkitpro/devkitppc/bin/../lib/gcc/powerpc-eabi/10.2.0/../../../../powerpc-eabi/lib\libsysbase.a(sbrk.o)
 .text          0x0000000000000000        0x0 c:/msys64/opt/devkitpro/devkitppc/bin/../lib/gcc/powerpc-eabi/10.2.0/../../../../powerpc-eabi/lib\libsysbase.a(write.o)
 .data          0x0000000000000000        0x0 c:/msys64/opt/devkitpro/devkitppc/bin/../lib/gcc/powerpc-eabi/10.2.0/../../../../powerpc-eabi/lib\libsysbase.a(write.o)
 .bss           0x0000000000000000        0x0 c:/msys64/opt/devkitpro/devkitppc/bin/../lib/gcc/powerpc-eabi/10.2.0/../../../../powerpc-eabi/lib\libsysbase.a(write.o)
 .comment       0x0000000000000000       0x24 c:/msys64/opt/devkitpro/devkitppc/bin/../lib/gcc/powerpc-eabi/10.2.0/../../../../powerpc-eabi/lib\libsysbase.a(write.o)
 .eh_frame      0x0000000000000000       0x4c c:/msys64/opt/devkitpro/devkitppc/bin/../lib/gcc/powerpc-eabi/10.2.0/../../../../powerpc-eabi/lib\libsysbase.a(write.o)
 .text          0x0000000000000000        0x0 c:/msys64/opt/devkitpro/devkitppc/bin/../lib/gcc/powerpc-eabi/10.2.0/../../../../powerpc-eabi/lib\libsysbase.a(_exit.o)
 .data          0x0000000000000000        0x0 c:/msys64/opt/devkitpro/devkitppc/bin/../lib/gcc/powerpc-eabi/10.2.0/../../../../powerpc-eabi/lib\libsysbase.a(_exit.o)
 .bss           0x0000000000000000        0x0 c:/msys64/opt/devkitpro/devkitppc/bin/../lib/gcc/powerpc-eabi/10.2.0/../../../../powerpc-eabi/lib\libsysbase.a(_exit.o)
 .comment       0x0000000000000000       0x24 c:/msys64/opt/devkitpro/devkitppc/bin/../lib/gcc/powerpc-eabi/10.2.0/../../../../powerpc-eabi/lib\libsysbase.a(_exit.o)
 .eh_frame      0x0000000000000000       0x34 c:/msys64/opt/devkitpro/devkitppc/bin/../lib/gcc/powerpc-eabi/10.2.0/../../../../powerpc-eabi/lib\libsysbase.a(_exit.o)
 .text          0x0000000000000000        0x0 c:/msys64/opt/devkitpro/devkitppc/bin/../lib/gcc/powerpc-eabi/10.2.0/../../../../powerpc-eabi/lib\libsysbase.a(flock.o)
 .data          0x0000000000000000        0x0 c:/msys64/opt/devkitpro/devkitppc/bin/../lib/gcc/powerpc-eabi/10.2.0/../../../../powerpc-eabi/lib\libsysbase.a(flock.o)
 .bss           0x0000000000000000        0x0 c:/msys64/opt/devkitpro/devkitppc/bin/../lib/gcc/powerpc-eabi/10.2.0/../../../../powerpc-eabi/lib\libsysbase.a(flock.o)
 .comment       0x0000000000000000       0x24 c:/msys64/opt/devkitpro/devkitppc/bin/../lib/gcc/powerpc-eabi/10.2.0/../../../../powerpc-eabi/lib\libsysbase.a(flock.o)
 .eh_frame      0x0000000000000000       0x58 c:/msys64/opt/devkitpro/devkitppc/bin/../lib/gcc/powerpc-eabi/10.2.0/../../../../powerpc-eabi/lib\libsysbase.a(flock.o)
 .text          0x0000000000000000        0x0 c:/msys64/opt/devkitpro/devkitppc/bin/../lib/gcc/powerpc-eabi/10.2.0/../../../../powerpc-eabi/lib\libsysbase.a(handle_manager.o)
 .data          0x0000000000000000        0x0 c:/msys64/opt/devkitpro/devkitppc/bin/../lib/gcc/powerpc-eabi/10.2.0/../../../../powerpc-eabi/lib\libsysbase.a(handle_manager.o)
 .bss           0x0000000000000000        0x0 c:/msys64/opt/devkitpro/devkitppc/bin/../lib/gcc/powerpc-eabi/10.2.0/../../../../powerpc-eabi/lib\libsysbase.a(handle_manager.o)
 .text.__free_handle
                0x0000000000000000       0x3c c:/msys64/opt/devkitpro/devkitppc/bin/../lib/gcc/powerpc-eabi/10.2.0/../../../../powerpc-eabi/lib\libsysbase.a(handle_manager.o)
 .text.__alloc_handle
                0x0000000000000000      0x128 c:/msys64/opt/devkitpro/devkitppc/bin/../lib/gcc/powerpc-eabi/10.2.0/../../../../powerpc-eabi/lib\libsysbase.a(handle_manager.o)
 .text.dup      0x0000000000000000      0x100 c:/msys64/opt/devkitpro/devkitppc/bin/../lib/gcc/powerpc-eabi/10.2.0/../../../../powerpc-eabi/lib\libsysbase.a(handle_manager.o)
 .text.dup2     0x0000000000000000      0x1c8 c:/msys64/opt/devkitpro/devkitppc/bin/../lib/gcc/powerpc-eabi/10.2.0/../../../../powerpc-eabi/lib\libsysbase.a(handle_manager.o)
 .comment       0x0000000000000000       0x24 c:/msys64/opt/devkitpro/devkitppc/bin/../lib/gcc/powerpc-eabi/10.2.0/../../../../powerpc-eabi/lib\libsysbase.a(handle_manager.o)
 .eh_frame      0x0000000000000000      0x118 c:/msys64/opt/devkitpro/devkitppc/bin/../lib/gcc/powerpc-eabi/10.2.0/../../../../powerpc-eabi/lib\libsysbase.a(handle_manager.o)
 .text          0x0000000000000000        0x0 c:/msys64/opt/devkitpro/devkitppc/bin/../lib/gcc/powerpc-eabi/10.2.0/../../../../powerpc-eabi/lib\libsysbase.a(syscall_support.o)
 .data          0x0000000000000000        0x0 c:/msys64/opt/devkitpro/devkitppc/bin/../lib/gcc/powerpc-eabi/10.2.0/../../../../powerpc-eabi/lib\libsysbase.a(syscall_support.o)
 .bss           0x0000000000000000        0x0 c:/msys64/opt/devkitpro/devkitppc/bin/../lib/gcc/powerpc-eabi/10.2.0/../../../../powerpc-eabi/lib\libsysbase.a(syscall_support.o)
 .comment       0x0000000000000000       0x24 c:/msys64/opt/devkitpro/devkitppc/bin/../lib/gcc/powerpc-eabi/10.2.0/../../../../powerpc-eabi/lib\libsysbase.a(syscall_support.o)
 .eh_frame      0x0000000000000000       0x8c c:/msys64/opt/devkitpro/devkitppc/bin/../lib/gcc/powerpc-eabi/10.2.0/../../../../powerpc-eabi/lib\libsysbase.a(syscall_support.o)
 .text          0x0000000000000000        0x0 c:/msys64/opt/devkitpro/devkitppc/bin/../lib/gcc/powerpc-eabi/10.2.0/../../../../powerpc-eabi/lib\libsysbase.a(iosupport.o)
 .data          0x0000000000000000        0x0 c:/msys64/opt/devkitpro/devkitppc/bin/../lib/gcc/powerpc-eabi/10.2.0/../../../../powerpc-eabi/lib\libsysbase.a(iosupport.o)
 .bss           0x0000000000000000        0x0 c:/msys64/opt/devkitpro/devkitppc/bin/../lib/gcc/powerpc-eabi/10.2.0/../../../../powerpc-eabi/lib\libsysbase.a(iosupport.o)
 .text.setDefaultDevice
                0x0000000000000000       0x18 c:/msys64/opt/devkitpro/devkitppc/bin/../lib/gcc/powerpc-eabi/10.2.0/../../../../powerpc-eabi/lib\libsysbase.a(iosupport.o)
 .text.FindDevice
                0x0000000000000000      0x134 c:/msys64/opt/devkitpro/devkitppc/bin/../lib/gcc/powerpc-eabi/10.2.0/../../../../powerpc-eabi/lib\libsysbase.a(iosupport.o)
 .text.RemoveDevice
                0x0000000000000000       0x44 c:/msys64/opt/devkitpro/devkitppc/bin/../lib/gcc/powerpc-eabi/10.2.0/../../../../powerpc-eabi/lib\libsysbase.a(iosupport.o)
 .text.AddDevice
                0x0000000000000000      0x11c c:/msys64/opt/devkitpro/devkitppc/bin/../lib/gcc/powerpc-eabi/10.2.0/../../../../powerpc-eabi/lib\libsysbase.a(iosupport.o)
 .text.GetDeviceOpTab
                0x0000000000000000       0x4c c:/msys64/opt/devkitpro/devkitppc/bin/../lib/gcc/powerpc-eabi/10.2.0/../../../../powerpc-eabi/lib\libsysbase.a(iosupport.o)
 .data.defaultDevice
                0x0000000000000000        0x4 c:/msys64/opt/devkitpro/devkitppc/bin/../lib/gcc/powerpc-eabi/10.2.0/../../../../powerpc-eabi/lib\libsysbase.a(iosupport.o)
 .comment       0x0000000000000000       0x24 c:/msys64/opt/devkitpro/devkitppc/bin/../lib/gcc/powerpc-eabi/10.2.0/../../../../powerpc-eabi/lib\libsysbase.a(iosupport.o)
 .eh_frame      0x0000000000000000      0x128 c:/msys64/opt/devkitpro/devkitppc/bin/../lib/gcc/powerpc-eabi/10.2.0/../../../../powerpc-eabi/lib\libsysbase.a(iosupport.o)
 .text          0x0000000000000000        0x0 c:/msys64/opt/devkitpro/devkitppc/bin/../lib/gcc/powerpc-eabi/10.2.0\libgcc.a(_udivdi3.o)
 .data          0x0000000000000000        0x0 c:/msys64/opt/devkitpro/devkitppc/bin/../lib/gcc/powerpc-eabi/10.2.0\libgcc.a(_udivdi3.o)
 .bss           0x0000000000000000        0x0 c:/msys64/opt/devkitpro/devkitppc/bin/../lib/gcc/powerpc-eabi/10.2.0\libgcc.a(_udivdi3.o)
 .comment       0x0000000000000000       0x24 c:/msys64/opt/devkitpro/devkitppc/bin/../lib/gcc/powerpc-eabi/10.2.0\libgcc.a(_udivdi3.o)
 .eh_frame      0x0000000000000000       0x48 c:/msys64/opt/devkitpro/devkitppc/bin/../lib/gcc/powerpc-eabi/10.2.0\libgcc.a(_udivdi3.o)
 .text          0x0000000000000000        0x0 c:/msys64/opt/devkitpro/devkitppc/bin/../lib/gcc/powerpc-eabi/10.2.0\libgcc.a(_umoddi3.o)
 .data          0x0000000000000000        0x0 c:/msys64/opt/devkitpro/devkitppc/bin/../lib/gcc/powerpc-eabi/10.2.0\libgcc.a(_umoddi3.o)
 .bss           0x0000000000000000        0x0 c:/msys64/opt/devkitpro/devkitppc/bin/../lib/gcc/powerpc-eabi/10.2.0\libgcc.a(_umoddi3.o)
 .comment       0x0000000000000000       0x24 c:/msys64/opt/devkitpro/devkitppc/bin/../lib/gcc/powerpc-eabi/10.2.0\libgcc.a(_umoddi3.o)
 .eh_frame      0x0000000000000000       0x58 c:/msys64/opt/devkitpro/devkitppc/bin/../lib/gcc/powerpc-eabi/10.2.0\libgcc.a(_umoddi3.o)

Memory Configuration

Name             Origin             Length             Attributes
*default*        0x0000000000000000 0xffffffffffffffff

Linker script and memory map

LOAD entry.o
LOAD debugger.o
LOAD iosu_kernel.o
LOAD patcher.o
LOAD symbols.o
LOAD kernel_asm.o
LOAD c:/msys64/opt/devkitpro/devkitppc/bin/../lib/gcc/powerpc-eabi/10.2.0/../../../../powerpc-eabi/lib\libstdc++.a
LOAD c:/msys64/opt/devkitpro/devkitppc/bin/../lib/gcc/powerpc-eabi/10.2.0/../../../../powerpc-eabi/lib\libm.a
LOAD c:/msys64/opt/devkitpro/devkitppc/bin/../lib/gcc/powerpc-eabi/10.2.0\libgcc.a
START GROUP
LOAD c:/msys64/opt/devkitpro/devkitppc/bin/../lib/gcc/powerpc-eabi/10.2.0/../../../../powerpc-eabi/lib\libsysbase.a
LOAD c:/msys64/opt/devkitpro/devkitppc/bin/../lib/gcc/powerpc-eabi/10.2.0/../../../../powerpc-eabi/lib\libc.a
END GROUP
LOAD c:/msys64/opt/devkitpro/devkitppc/bin/../lib/gcc/powerpc-eabi/10.2.0\libgcc.a
                0x0000000000802000                . = 0x802000

.text           0x0000000000802000     0xe4a4
 *(.kernel_code*)
 *(.text*)
 .text.__entry  0x0000000000802000       0x30 entry.o
                0x0000000000802000                __entry
 .text._ZN4WiiU8Debugger3LogEPKc
                0x0000000000802030       0xec debugger.o
                0x0000000000802030                _ZN4WiiU8Debugger3LogEPKc
 .text._ZN4WiiU8Debugger4LogfEPKcz
                0x000000000080211c      0x114 debugger.o
                0x000000000080211c                _ZN4WiiU8Debugger4LogfEPKcz
 .text._ZN4WiiU8Debugger5StartEv
                0x0000000000802230      0x150 debugger.o
                0x0000000000802230                _ZN4WiiU8Debugger5StartEv
 .text._ZN4WiiU9Exception16ExceptionHandlerEPKcP9OSContext
                0x0000000000802380      0x398 debugger.o
                0x0000000000802380                _ZN4WiiU9Exception16ExceptionHandlerEPKcP9OSContext
 .text._Z6ExcDSIP9OSContext
                0x0000000000802718       0x30 debugger.o
                0x0000000000802718                _Z6ExcDSIP9OSContext
 .text._Z6ExcISIP9OSContext
                0x0000000000802748       0x30 debugger.o
                0x0000000000802748                _Z6ExcISIP9OSContext
 .text._Z10ExcProgramP9OSContext
                0x0000000000802778       0x30 debugger.o
                0x0000000000802778                _Z10ExcProgramP9OSContext
 .text._Z11USB_Write32iPjjj
                0x00000000008027a8       0x98 iosu_kernel.o
                0x00000000008027a8                _Z11USB_Write32iPjjj
 .text._ZN4WiiU11IOSU_Kernel7ExploitEPi
                0x0000000000802840      0xad0 iosu_kernel.o
                0x0000000000802840                _ZN4WiiU11IOSU_Kernel7ExploitEPi
 .text.__wrap_malloc
                0x0000000000803310       0x10 symbols.o
                0x0000000000803310                __wrap_malloc
 .text.__wrap_free
                0x0000000000803320       0x10 symbols.o
                0x0000000000803320                __wrap_free
 .text._ZN4WiiU7Symbols15LoadWiiUSymbolsEv
                0x0000000000803330     0x1ca0 symbols.o
                0x0000000000803330                _ZN4WiiU7Symbols15LoadWiiUSymbolsEv
 .text.memcpy   0x0000000000804fd0      0x13c c:/msys64/opt/devkitpro/devkitppc/bin/../lib/gcc/powerpc-eabi/10.2.0/../../../../powerpc-eabi/lib\libc.a(lib_a-memcpy.o)
                0x0000000000804fd0                memcpy
 .text.memset   0x000000000080510c      0x1b0 c:/msys64/opt/devkitpro/devkitppc/bin/../lib/gcc/powerpc-eabi/10.2.0/../../../../powerpc-eabi/lib\libc.a(lib_a-memset.o)
                0x000000000080510c                memset
 .text.strlen   0x00000000008052bc       0x80 c:/msys64/opt/devkitpro/devkitppc/bin/../lib/gcc/powerpc-eabi/10.2.0/../../../../powerpc-eabi/lib\libc.a(lib_a-strlen.o)
                0x00000000008052bc                strlen
 .text.vsnprintf
                0x000000000080533c       0xe8 c:/msys64/opt/devkitpro/devkitppc/bin/../lib/gcc/powerpc-eabi/10.2.0/../../../../powerpc-eabi/lib\libc.a(lib_a-vsnprintf.o)
                0x000000000080533c                vsnprintf
 .text._svfprintf_r
                0x0000000000805424     0x22f0 c:/msys64/opt/devkitpro/devkitppc/bin/../lib/gcc/powerpc-eabi/10.2.0/../../../../powerpc-eabi/lib\libc.a(lib_a-svfprintf.o)
                0x0000000000805424                _svfprintf_r
 .text._wcrtomb_r
                0x0000000000807714       0xe4 c:/msys64/opt/devkitpro/devkitppc/bin/../lib/gcc/powerpc-eabi/10.2.0/../../../../powerpc-eabi/lib\libc.a(lib_a-wcrtomb.o)
                0x0000000000807714                _wcrtomb_r
 .text._wcsrtombs_r
                0x00000000008077f8       0x10 c:/msys64/opt/devkitpro/devkitppc/bin/../lib/gcc/powerpc-eabi/10.2.0/../../../../powerpc-eabi/lib\libc.a(lib_a-wcsrtombs.o)
                0x00000000008077f8                _wcsrtombs_r
 .text.quorem   0x0000000000807808      0x2fc c:/msys64/opt/devkitpro/devkitppc/bin/../lib/gcc/powerpc-eabi/10.2.0/../../../../powerpc-eabi/lib\libc.a(lib_a-dtoa.o)
 .text._dtoa_r  0x0000000000807b04     0x1420 c:/msys64/opt/devkitpro/devkitppc/bin/../lib/gcc/powerpc-eabi/10.2.0/../../../../powerpc-eabi/lib\libc.a(lib_a-dtoa.o)
                0x0000000000807b04                _dtoa_r
 .text._malloc_trim_r
                0x0000000000808f24      0x138 c:/msys64/opt/devkitpro/devkitppc/bin/../lib/gcc/powerpc-eabi/10.2.0/../../../../powerpc-eabi/lib\libc.a(lib_a-freer.o)
                0x0000000000808f24                _malloc_trim_r
 .text._free_r  0x000000000080905c      0x340 c:/msys64/opt/devkitpro/devkitppc/bin/../lib/gcc/powerpc-eabi/10.2.0/../../../../powerpc-eabi/lib\libc.a(lib_a-freer.o)
                0x000000000080905c                _free_r
 .text._localeconv_r
                0x000000000080939c       0x2c c:/msys64/opt/devkitpro/devkitppc/bin/../lib/gcc/powerpc-eabi/10.2.0/../../../../powerpc-eabi/lib\libc.a(lib_a-localeconv.o)
                0x000000000080939c                _localeconv_r
 .text.__locale_mb_cur_max
                0x00000000008093c8       0x2c c:/msys64/opt/devkitpro/devkitppc/bin/../lib/gcc/powerpc-eabi/10.2.0/../../../../powerpc-eabi/lib\libc.a(lib_a-locale.o)
                0x00000000008093c8                __locale_mb_cur_max
 .text._malloc_r
                0x00000000008093f4      0x894 c:/msys64/opt/devkitpro/devkitppc/bin/../lib/gcc/powerpc-eabi/10.2.0/../../../../powerpc-eabi/lib\libc.a(lib_a-mallocr.o)
                0x00000000008093f4                _malloc_r
 .text.__utf8_mbtowc
                0x0000000000809c88      0x5c8 c:/msys64/opt/devkitpro/devkitppc/bin/../lib/gcc/powerpc-eabi/10.2.0/../../../../powerpc-eabi/lib\libc.a(lib_a-mbtowc_r.o)
                0x0000000000809c88                __utf8_mbtowc
 .text.memchr   0x000000000080a250      0x158 c:/msys64/opt/devkitpro/devkitppc/bin/../lib/gcc/powerpc-eabi/10.2.0/../../../../powerpc-eabi/lib\libc.a(lib_a-memchr.o)
                0x000000000080a250                memchr
 .text._Balloc  0x000000000080a3a8       0xe0 c:/msys64/opt/devkitpro/devkitppc/bin/../lib/gcc/powerpc-eabi/10.2.0/../../../../powerpc-eabi/lib\libc.a(lib_a-mprec.o)
                0x000000000080a3a8                _Balloc
 .text._Bfree   0x000000000080a488       0x24 c:/msys64/opt/devkitpro/devkitppc/bin/../lib/gcc/powerpc-eabi/10.2.0/../../../../powerpc-eabi/lib\libc.a(lib_a-mprec.o)
                0x000000000080a488                _Bfree
 .text.__multadd
                0x000000000080a4ac      0x158 c:/msys64/opt/devkitpro/devkitppc/bin/../lib/gcc/powerpc-eabi/10.2.0/../../../../powerpc-eabi/lib\libc.a(lib_a-mprec.o)
                0x000000000080a4ac                __multadd
 .text.__hi0bits
                0x000000000080a604       0x64 c:/msys64/opt/devkitpro/devkitppc/bin/../lib/gcc/powerpc-eabi/10.2.0/../../../../powerpc-eabi/lib\libc.a(lib_a-mprec.o)
                0x000000000080a604                __hi0bits
 .text.__lo0bits
                0x000000000080a668       0xb4 c:/msys64/opt/devkitpro/devkitppc/bin/../lib/gcc/powerpc-eabi/10.2.0/../../../../powerpc-eabi/lib\libc.a(lib_a-mprec.o)
                0x000000000080a668                __lo0bits
 .text.__i2b    0x000000000080a71c      0x108 c:/msys64/opt/devkitpro/devkitppc/bin/../lib/gcc/powerpc-eabi/10.2.0/../../../../powerpc-eabi/lib\libc.a(lib_a-mprec.o)
                0x000000000080a71c                __i2b
 .text.__multiply
                0x000000000080a824      0x2e4 c:/msys64/opt/devkitpro/devkitppc/bin/../lib/gcc/powerpc-eabi/10.2.0/../../../../powerpc-eabi/lib\libc.a(lib_a-mprec.o)
                0x000000000080a824                __multiply
 .text.__pow5mult
                0x000000000080ab08      0x184 c:/msys64/opt/devkitpro/devkitppc/bin/../lib/gcc/powerpc-eabi/10.2.0/../../../../powerpc-eabi/lib\libc.a(lib_a-mprec.o)
                0x000000000080ab08                __pow5mult
 .text.__lshift
                0x000000000080ac8c      0x228 c:/msys64/opt/devkitpro/devkitppc/bin/../lib/gcc/powerpc-eabi/10.2.0/../../../../powerpc-eabi/lib\libc.a(lib_a-mprec.o)
                0x000000000080ac8c                __lshift
 .text.__mcmp   0x000000000080aeb4       0xe0 c:/msys64/opt/devkitpro/devkitppc/bin/../lib/gcc/powerpc-eabi/10.2.0/../../../../powerpc-eabi/lib\libc.a(lib_a-mprec.o)
                0x000000000080aeb4                __mcmp
 .text.__mdiff  0x000000000080af94      0x2d8 c:/msys64/opt/devkitpro/devkitppc/bin/../lib/gcc/powerpc-eabi/10.2.0/../../../../powerpc-eabi/lib\libc.a(lib_a-mprec.o)
                0x000000000080af94                __mdiff
 .text.__d2b    0x000000000080b26c      0x1ac c:/msys64/opt/devkitpro/devkitppc/bin/../lib/gcc/powerpc-eabi/10.2.0/../../../../powerpc-eabi/lib\libc.a(lib_a-mprec.o)
                0x000000000080b26c                __d2b
 .text.__ssprint_r
                0x000000000080b418      0x24c c:/msys64/opt/devkitpro/devkitppc/bin/../lib/gcc/powerpc-eabi/10.2.0/../../../../powerpc-eabi/lib\libc.a(lib_a-svfiprintf.o)
                0x000000000080b418                __ssprint_r
 .text._wcsnrtombs_l
                0x000000000080b664      0x214 c:/msys64/opt/devkitpro/devkitppc/bin/../lib/gcc/powerpc-eabi/10.2.0/../../../../powerpc-eabi/lib\libc.a(lib_a-wcsnrtombs.o)
                0x000000000080b664                _wcsnrtombs_l
 .text._wcsnrtombs_r
                0x000000000080b878       0x24 c:/msys64/opt/devkitpro/devkitppc/bin/../lib/gcc/powerpc-eabi/10.2.0/../../../../powerpc-eabi/lib\libc.a(lib_a-wcsnrtombs.o)
                0x000000000080b878                _wcsnrtombs_r
 .text.__utf8_wctomb
                0x000000000080b89c      0x108 c:/msys64/opt/devkitpro/devkitppc/bin/../lib/gcc/powerpc-eabi/10.2.0/../../../../powerpc-eabi/lib\libc.a(lib_a-wctomb_r.o)
                0x000000000080b89c                __utf8_wctomb
 .text.__assert_func
                0x000000000080b9a4       0x58 c:/msys64/opt/devkitpro/devkitppc/bin/../lib/gcc/powerpc-eabi/10.2.0/../../../../powerpc-eabi/lib\libc.a(lib_a-assert.o)
                0x000000000080b9a4                __assert_func
 .text._calloc_r
                0x000000000080b9fc       0xc4 c:/msys64/opt/devkitpro/devkitppc/bin/../lib/gcc/powerpc-eabi/10.2.0/../../../../powerpc-eabi/lib\libc.a(lib_a-callocr.o)
                0x000000000080b9fc                _calloc_r
 .text.fiprintf
                0x000000000080bac0       0x94 c:/msys64/opt/devkitpro/devkitppc/bin/../lib/gcc/powerpc-eabi/10.2.0/../../../../powerpc-eabi/lib\libc.a(lib_a-fiprintf.o)
                0x000000000080bac0                fiprintf
 .text.memmove  0x000000000080bb54      0x1ac c:/msys64/opt/devkitpro/devkitppc/bin/../lib/gcc/powerpc-eabi/10.2.0/../../../../powerpc-eabi/lib\libc.a(lib_a-memmove.o)
                0x000000000080bb54                memmove
 .text._realloc_r
                0x000000000080bd00      0x670 c:/msys64/opt/devkitpro/devkitppc/bin/../lib/gcc/powerpc-eabi/10.2.0/../../../../powerpc-eabi/lib\libc.a(lib_a-reallocr.o)
                0x000000000080bd00                _realloc_r
 .text.__sprint_r.part.0
                0x000000000080c370      0x148 c:/msys64/opt/devkitpro/devkitppc/bin/../lib/gcc/powerpc-eabi/10.2.0/../../../../powerpc-eabi/lib\libc.a(lib_a-vfiprintf.o)
 .text._vfiprintf_r
                0x000000000080c4b8     0x17c8 c:/msys64/opt/devkitpro/devkitppc/bin/../lib/gcc/powerpc-eabi/10.2.0/../../../../powerpc-eabi/lib\libc.a(lib_a-vfiprintf.o)
                0x000000000080c4b8                _vfiprintf_r
 .text.__sbprintf
                0x000000000080dc80      0x100 c:/msys64/opt/devkitpro/devkitppc/bin/../lib/gcc/powerpc-eabi/10.2.0/../../../../powerpc-eabi/lib\libc.a(lib_a-vfiprintf.o)
 .text.__swsetup_r
                0x000000000080dd80      0x1bc c:/msys64/opt/devkitpro/devkitppc/bin/../lib/gcc/powerpc-eabi/10.2.0/../../../../powerpc-eabi/lib\libc.a(lib_a-wsetup.o)
                0x000000000080dd80                __swsetup_r
 .text.abort    0x000000000080df3c       0x1c c:/msys64/opt/devkitpro/devkitppc/bin/../lib/gcc/powerpc-eabi/10.2.0/../../../../powerpc-eabi/lib\libc.a(lib_a-abort.o)
                0x000000000080df3c                abort
 .text.__sflush_r
                0x000000000080df58      0x340 c:/msys64/opt/devkitpro/devkitppc/bin/../lib/gcc/powerpc-eabi/10.2.0/../../../../powerpc-eabi/lib\libc.a(lib_a-fflush.o)
                0x000000000080df58                __sflush_r
 .text._fflush_r
                0x000000000080e298      0x108 c:/msys64/opt/devkitpro/devkitppc/bin/../lib/gcc/powerpc-eabi/10.2.0/../../../../powerpc-eabi/lib\libc.a(lib_a-fflush.o)
                0x000000000080e298                _fflush_r
 .text._cleanup_r
                0x000000000080e3a0        0xc c:/msys64/opt/devkitpro/devkitppc/bin/../lib/gcc/powerpc-eabi/10.2.0/../../../../powerpc-eabi/lib\libc.a(lib_a-findfp.o)
                0x000000000080e3a0                _cleanup_r
 .text.__sinit  0x000000000080e3ac      0x1f8 c:/msys64/opt/devkitpro/devkitppc/bin/../lib/gcc/powerpc-eabi/10.2.0/../../../../powerpc-eabi/lib\libc.a(lib_a-findfp.o)
                0x000000000080e3ac                __sinit
 .text.__sfp_lock_acquire
                0x000000000080e5a4       0x58 c:/msys64/opt/devkitpro/devkitppc/bin/../lib/gcc/powerpc-eabi/10.2.0/../../../../powerpc-eabi/lib\libc.a(lib_a-findfp.o)
                0x000000000080e5a4                __sfp_lock_acquire
 .text.__sfp_lock_release
                0x000000000080e5fc        0xc c:/msys64/opt/devkitpro/devkitppc/bin/../lib/gcc/powerpc-eabi/10.2.0/../../../../powerpc-eabi/lib\libc.a(lib_a-findfp.o)
                0x000000000080e5fc                __sfp_lock_release
 .text.__fputwc
                0x000000000080e608      0x18c c:/msys64/opt/devkitpro/devkitppc/bin/../lib/gcc/powerpc-eabi/10.2.0/../../../../powerpc-eabi/lib\libc.a(lib_a-fputwc.o)
                0x000000000080e608                __fputwc
 .text._fputwc_r
                0x000000000080e794       0xe0 c:/msys64/opt/devkitpro/devkitppc/bin/../lib/gcc/powerpc-eabi/10.2.0/../../../../powerpc-eabi/lib\libc.a(lib_a-fputwc.o)
                0x000000000080e794                _fputwc_r
 .text.__sfvwrite_r
                0x000000000080e874      0x5b0 c:/msys64/opt/devkitpro/devkitppc/bin/../lib/gcc/powerpc-eabi/10.2.0/../../../../powerpc-eabi/lib\libc.a(lib_a-fvwrite.o)
                0x000000000080e874                __sfvwrite_r
 .text._fwalk_reent
                0x000000000080ee24       0xb4 c:/msys64/opt/devkitpro/devkitppc/bin/../lib/gcc/powerpc-eabi/10.2.0/../../../../powerpc-eabi/lib\libc.a(lib_a-fwalk.o)
                0x000000000080ee24                _fwalk_reent
 .text.__smakebuf_r
                0x000000000080eed8      0x194 c:/msys64/opt/devkitpro/devkitppc/bin/../lib/gcc/powerpc-eabi/10.2.0/../../../../powerpc-eabi/lib\libc.a(lib_a-makebuf.o)
                0x000000000080eed8                __smakebuf_r
 .text.raise    0x000000000080f06c       0xf4 c:/msys64/opt/devkitpro/devkitppc/bin/../lib/gcc/powerpc-eabi/10.2.0/../../../../powerpc-eabi/lib\libc.a(lib_a-signal.o)
                0x000000000080f06c                raise
 .text.__sread  0x000000000080f160       0x74 c:/msys64/opt/devkitpro/devkitppc/bin/../lib/gcc/powerpc-eabi/10.2.0/../../../../powerpc-eabi/lib\libc.a(lib_a-stdio.o)
                0x000000000080f160                __sread
 .text.__swrite
                0x000000000080f1d4       0xb8 c:/msys64/opt/devkitpro/devkitppc/bin/../lib/gcc/powerpc-eabi/10.2.0/../../../../powerpc-eabi/lib\libc.a(lib_a-stdio.o)
                0x000000000080f1d4                __swrite
 .text.__sseek  0x000000000080f28c       0x70 c:/msys64/opt/devkitpro/devkitppc/bin/../lib/gcc/powerpc-eabi/10.2.0/../../../../powerpc-eabi/lib\libc.a(lib_a-stdio.o)
                0x000000000080f28c                __sseek
 .text.__sclose
                0x000000000080f2fc        0x8 c:/msys64/opt/devkitpro/devkitppc/bin/../lib/gcc/powerpc-eabi/10.2.0/../../../../powerpc-eabi/lib\libc.a(lib_a-stdio.o)
                0x000000000080f2fc                __sclose
 .text.__swbuf_r
                0x000000000080f304      0x1c4 c:/msys64/opt/devkitpro/devkitppc/bin/../lib/gcc/powerpc-eabi/10.2.0/../../../../powerpc-eabi/lib\libc.a(lib_a-wbuf.o)
                0x000000000080f304                __swbuf_r
 .text._fclose_r
                0x000000000080f4c8      0x1fc c:/msys64/opt/devkitpro/devkitppc/bin/../lib/gcc/powerpc-eabi/10.2.0/../../../../powerpc-eabi/lib\libc.a(lib_a-fclose.o)
                0x000000000080f4c8                _fclose_r
 .text._close_r
                0x000000000080f6c4       0xec c:/msys64/opt/devkitpro/devkitppc/bin/../lib/gcc/powerpc-eabi/10.2.0/../../../../powerpc-eabi/lib\libsysbase.a(close.o)
                0x000000000080f6c4                _close_r
 .text._fstat_r
                0x000000000080f7b0       0xb0 c:/msys64/opt/devkitpro/devkitppc/bin/../lib/gcc/powerpc-eabi/10.2.0/../../../../powerpc-eabi/lib\libsysbase.a(fstat.o)
                0x000000000080f7b0                _fstat_r
 .text._getpid_r
                0x000000000080f860       0x10 c:/msys64/opt/devkitpro/devkitppc/bin/../lib/gcc/powerpc-eabi/10.2.0/../../../../powerpc-eabi/lib\libsysbase.a(getpid.o)
                0x000000000080f860                _getpid_r
 .text._isatty_r
                0x000000000080f870        0x8 c:/msys64/opt/devkitpro/devkitppc/bin/../lib/gcc/powerpc-eabi/10.2.0/../../../../powerpc-eabi/lib\libsysbase.a(isatty.o)
                0x000000000080f870                _isatty_r
 .text._kill_r  0x000000000080f878       0x10 c:/msys64/opt/devkitpro/devkitppc/bin/../lib/gcc/powerpc-eabi/10.2.0/../../../../powerpc-eabi/lib\libsysbase.a(kill.o)
                0x000000000080f878                _kill_r
 .text._lseek_r
                0x000000000080f888       0xe0 c:/msys64/opt/devkitpro/devkitppc/bin/../lib/gcc/powerpc-eabi/10.2.0/../../../../powerpc-eabi/lib\libsysbase.a(lseek.o)
                0x000000000080f888                _lseek_r
 .text._read_r  0x000000000080f968       0xc4 c:/msys64/opt/devkitpro/devkitppc/bin/../lib/gcc/powerpc-eabi/10.2.0/../../../../powerpc-eabi/lib\libsysbase.a(read.o)
                0x000000000080f968                _read_r
 .text._sbrk_r  0x000000000080fa2c       0x28 c:/msys64/opt/devkitpro/devkitppc/bin/../lib/gcc/powerpc-eabi/10.2.0/../../../../powerpc-eabi/lib\libsysbase.a(sbrk.o)
                0x000000000080fa2c                _sbrk_r
 .text._write_r
                0x000000000080fa54       0xc4 c:/msys64/opt/devkitpro/devkitppc/bin/../lib/gcc/powerpc-eabi/10.2.0/../../../../powerpc-eabi/lib\libsysbase.a(write.o)
                0x000000000080fa54                _write_r
 .text._exit    0x000000000080fb18       0x28 c:/msys64/opt/devkitpro/devkitppc/bin/../lib/gcc/powerpc-eabi/10.2.0/../../../../powerpc-eabi/lib\libsysbase.a(_exit.o)
                0x000000000080fb18                _exit
 .text.__flockfile
                0x000000000080fb40       0x54 c:/msys64/opt/devkitpro/devkitppc/bin/../lib/gcc/powerpc-eabi/10.2.0/../../../../powerpc-eabi/lib\libsysbase.a(flock.o)
                0x000000000080fb40                __flockfile
 .text.__funlockfile
                0x000000000080fb94        0x8 c:/msys64/opt/devkitpro/devkitppc/bin/../lib/gcc/powerpc-eabi/10.2.0/../../../../powerpc-eabi/lib\libsysbase.a(flock.o)
                0x000000000080fb94                __funlockfile
 .text.__release_handle
                0x000000000080fb9c       0xe4 c:/msys64/opt/devkitpro/devkitppc/bin/../lib/gcc/powerpc-eabi/10.2.0/../../../../powerpc-eabi/lib\libsysbase.a(handle_manager.o)
                0x000000000080fb9c                __release_handle
 .text.__get_handle
                0x000000000080fc80       0x24 c:/msys64/opt/devkitpro/devkitppc/bin/../lib/gcc/powerpc-eabi/10.2.0/../../../../powerpc-eabi/lib\libsysbase.a(handle_manager.o)
                0x000000000080fc80                __get_handle
 .text.__libc_lock_init
                0x000000000080fca4       0x1c c:/msys64/opt/devkitpro/devkitppc/bin/../lib/gcc/powerpc-eabi/10.2.0/../../../../powerpc-eabi/lib\libsysbase.a(syscall_support.o)
                0x000000000080fca4                __libc_lock_init
 .text.__libc_lock_close
                0x000000000080fcc0       0x1c c:/msys64/opt/devkitpro/devkitppc/bin/../lib/gcc/powerpc-eabi/10.2.0/../../../../powerpc-eabi/lib\libsysbase.a(syscall_support.o)
                0x000000000080fcc0                __libc_lock_close
 .text.__libc_lock_release
                0x000000000080fcdc       0x1c c:/msys64/opt/devkitpro/devkitppc/bin/../lib/gcc/powerpc-eabi/10.2.0/../../../../powerpc-eabi/lib\libsysbase.a(syscall_support.o)
                0x000000000080fcdc                __libc_lock_release
 .text.__libc_lock_acquire
                0x000000000080fcf8       0x1c c:/msys64/opt/devkitpro/devkitppc/bin/../lib/gcc/powerpc-eabi/10.2.0/../../../../powerpc-eabi/lib\libsysbase.a(syscall_support.o)
                0x000000000080fcf8                __libc_lock_acquire
 .text.__malloc_lock
                0x000000000080fd14       0x14 c:/msys64/opt/devkitpro/devkitppc/bin/../lib/gcc/powerpc-eabi/10.2.0/../../../../powerpc-eabi/lib\libsysbase.a(syscall_support.o)
                0x000000000080fd14                __malloc_lock
 .text.__malloc_unlock
                0x000000000080fd28       0x14 c:/msys64/opt/devkitpro/devkitppc/bin/../lib/gcc/powerpc-eabi/10.2.0/../../../../powerpc-eabi/lib\libsysbase.a(syscall_support.o)
                0x000000000080fd28                __malloc_unlock
 .text.null_write
                0x000000000080fd3c        0x8 c:/msys64/opt/devkitpro/devkitppc/bin/../lib/gcc/powerpc-eabi/10.2.0/../../../../powerpc-eabi/lib\libsysbase.a(iosupport.o)
 .text.__udivdi3
                0x000000000080fd44      0x3bc c:/msys64/opt/devkitpro/devkitppc/bin/../lib/gcc/powerpc-eabi/10.2.0\libgcc.a(_udivdi3.o)
                0x000000000080fd44                __udivdi3
 .text.__umoddi3
                0x0000000000810100      0x3a4 c:/msys64/opt/devkitpro/devkitppc/bin/../lib/gcc/powerpc-eabi/10.2.0\libgcc.a(_umoddi3.o)
                0x0000000000810100                __umoddi3
 *(.kernel_code*)

.rodata         0x00000000008104a8     0x1224
 *(.rodata*)
 .rodata._ZN4WiiU8Debugger4LogfEPKcz.str1.4
                0x00000000008104a8        0x7 debugger.o
 *fill*         0x00000000008104af        0x1 
 .rodata._ZN4WiiU8Debugger5StartEv.str1.4
                0x00000000008104b0       0xbd debugger.o
 *fill*         0x000000000081056d        0x3 
 .rodata._ZN4WiiU9Exception16ExceptionHandlerEPKcP9OSContext.str1.4
                0x0000000000810570      0x2bf debugger.o
 *fill*         0x000000000081082f        0x1 
 .rodata._Z6ExcDSIP9OSContext.str1.4
                0x0000000000810830        0x4 debugger.o
 .rodata._Z6ExcISIP9OSContext.str1.4
                0x0000000000810834        0x4 debugger.o
 .rodata._Z10ExcProgramP9OSContext.str1.4
                0x0000000000810838        0x8 debugger.o
 .rodata.str1.4
                0x0000000000810840       0x5d debugger.o
 *fill*         0x000000000081089d        0x3 
 .rodata._ZN4WiiU11IOSU_Kernel7ExploitEPi.str1.4
                0x00000000008108a0       0x21 iosu_kernel.o
 *fill*         0x00000000008108c1        0x3 
 .rodata        0x00000000008108c4      0x318 iosu_kernel.o
 .rodata._ZN4WiiU7Symbols15LoadWiiUSymbolsEv.str1.4
                0x0000000000810bdc      0x3c0 symbols.o
 .rodata._svfprintf_r.str1.4
                0x0000000000810f9c       0x42 c:/msys64/opt/devkitpro/devkitppc/bin/../lib/gcc/powerpc-eabi/10.2.0/../../../../powerpc-eabi/lib\libc.a(lib_a-svfprintf.o)
 *fill*         0x0000000000810fde        0x2 
 .rodata._svfprintf_r
                0x0000000000810fe0      0x164 c:/msys64/opt/devkitpro/devkitppc/bin/../lib/gcc/powerpc-eabi/10.2.0/../../../../powerpc-eabi/lib\libc.a(lib_a-svfprintf.o)
 .rodata.cst4   0x0000000000811144        0x4 c:/msys64/opt/devkitpro/devkitppc/bin/../lib/gcc/powerpc-eabi/10.2.0/../../../../powerpc-eabi/lib\libc.a(lib_a-svfprintf.o)
 .rodata.cst8   0x0000000000811148        0x8 c:/msys64/opt/devkitpro/devkitppc/bin/../lib/gcc/powerpc-eabi/10.2.0/../../../../powerpc-eabi/lib\libc.a(lib_a-svfprintf.o)
 .rodata.blanks.1
                0x0000000000811150       0x10 c:/msys64/opt/devkitpro/devkitppc/bin/../lib/gcc/powerpc-eabi/10.2.0/../../../../powerpc-eabi/lib\libc.a(lib_a-svfprintf.o)
 .rodata.zeroes.0
                0x0000000000811160       0x10 c:/msys64/opt/devkitpro/devkitppc/bin/../lib/gcc/powerpc-eabi/10.2.0/../../../../powerpc-eabi/lib\libc.a(lib_a-svfprintf.o)
 .rodata._dtoa_r.str1.4
                0x0000000000811170       0x5d c:/msys64/opt/devkitpro/devkitppc/bin/../lib/gcc/powerpc-eabi/10.2.0/../../../../powerpc-eabi/lib\libc.a(lib_a-dtoa.o)
                                         0x61 (size before relaxing)
 *fill*         0x00000000008111cd        0x3 
 .rodata.cst4   0x00000000008111d0       0x20 c:/msys64/opt/devkitpro/devkitppc/bin/../lib/gcc/powerpc-eabi/10.2.0/../../../../powerpc-eabi/lib\libc.a(lib_a-dtoa.o)
                                         0x24 (size before relaxing)
 .rodata.cst8   0x00000000008111f0       0x18 c:/msys64/opt/devkitpro/devkitppc/bin/../lib/gcc/powerpc-eabi/10.2.0/../../../../powerpc-eabi/lib\libc.a(lib_a-dtoa.o)
 .rodata.str1.4
                0x0000000000811208       0x48 c:/msys64/opt/devkitpro/devkitppc/bin/../lib/gcc/powerpc-eabi/10.2.0/../../../../powerpc-eabi/lib\libc.a(lib_a-locale.o)
                                         0x4c (size before relaxing)
 .rodata.__multadd.str1.4
                0x0000000000811250       0x3a c:/msys64/opt/devkitpro/devkitppc/bin/../lib/gcc/powerpc-eabi/10.2.0/../../../../powerpc-eabi/lib\libc.a(lib_a-mprec.o)
                                         0x4e (size before relaxing)
 *fill*         0x000000000081128a        0x6 
 .rodata.__mprec_bigtens
                0x0000000000811290       0x28 c:/msys64/opt/devkitpro/devkitppc/bin/../lib/gcc/powerpc-eabi/10.2.0/../../../../powerpc-eabi/lib\libc.a(lib_a-mprec.o)
                0x0000000000811290                __mprec_bigtens
 .rodata.__mprec_tens
                0x00000000008112b8       0xc8 c:/msys64/opt/devkitpro/devkitppc/bin/../lib/gcc/powerpc-eabi/10.2.0/../../../../powerpc-eabi/lib\libc.a(lib_a-mprec.o)
                0x00000000008112b8                __mprec_tens
 .rodata.p05.0  0x0000000000811380        0xc c:/msys64/opt/devkitpro/devkitppc/bin/../lib/gcc/powerpc-eabi/10.2.0/../../../../powerpc-eabi/lib\libc.a(lib_a-mprec.o)
 .rodata.__assert_func.str1.4
                0x000000000081138c       0x3f c:/msys64/opt/devkitpro/devkitppc/bin/../lib/gcc/powerpc-eabi/10.2.0/../../../../powerpc-eabi/lib\libc.a(lib_a-assert.o)
                                         0x43 (size before relaxing)
 *fill*         0x00000000008113cb        0x1 
 .rodata._ctype_
                0x00000000008113cc      0x101 c:/msys64/opt/devkitpro/devkitppc/bin/../lib/gcc/powerpc-eabi/10.2.0/../../../../powerpc-eabi/lib\libc.a(lib_a-ctype_.o)
                0x00000000008113cc                _ctype_
 .rodata._vfiprintf_r.str1.4
                0x00000000008114cd       0x2f c:/msys64/opt/devkitpro/devkitppc/bin/../lib/gcc/powerpc-eabi/10.2.0/../../../../powerpc-eabi/lib\libc.a(lib_a-vfiprintf.o)
 *fill*         0x00000000008114cd        0x3 
 .rodata._vfiprintf_r
                0x00000000008114d0      0x164 c:/msys64/opt/devkitpro/devkitppc/bin/../lib/gcc/powerpc-eabi/10.2.0/../../../../powerpc-eabi/lib\libc.a(lib_a-vfiprintf.o)
 .rodata.blanks.1
                0x0000000000811634       0x10 c:/msys64/opt/devkitpro/devkitppc/bin/../lib/gcc/powerpc-eabi/10.2.0/../../../../powerpc-eabi/lib\libc.a(lib_a-vfiprintf.o)
 .rodata.zeroes.0
                0x0000000000811644       0x10 c:/msys64/opt/devkitpro/devkitppc/bin/../lib/gcc/powerpc-eabi/10.2.0/../../../../powerpc-eabi/lib\libc.a(lib_a-vfiprintf.o)
 .rodata.AddDevice.str1.4
                0x0000000000811654        0x8 c:/msys64/opt/devkitpro/devkitppc/bin/../lib/gcc/powerpc-eabi/10.2.0/../../../../powerpc-eabi/lib\libsysbase.a(iosupport.o)
 .rodata.dotab_stdnull
                0x000000000081165c       0x70 c:/msys64/opt/devkitpro/devkitppc/bin/../lib/gcc/powerpc-eabi/10.2.0/../../../../powerpc-eabi/lib\libsysbase.a(iosupport.o)
                0x000000000081165c                dotab_stdnull

.data           0x00000000008116d0     0x1a44
 *(.data*)
 .data.impure_data
                0x00000000008116d0      0x448 c:/msys64/opt/devkitpro/devkitppc/bin/../lib/gcc/powerpc-eabi/10.2.0/../../../../powerpc-eabi/lib\libc.a(lib_a-impure.o)
 .data.__global_locale
                0x0000000000811b18      0x16c c:/msys64/opt/devkitpro/devkitppc/bin/../lib/gcc/powerpc-eabi/10.2.0/../../../../powerpc-eabi/lib\libc.a(lib_a-locale.o)
                0x0000000000811b18                __global_locale
 .data.__malloc_av_
                0x0000000000811c84      0x408 c:/msys64/opt/devkitpro/devkitppc/bin/../lib/gcc/powerpc-eabi/10.2.0/../../../../powerpc-eabi/lib\libc.a(lib_a-mallocr.o)
                0x0000000000811c84                __malloc_av_
 .data.__stderr_handle
                0x000000000081208c        0xc c:/msys64/opt/devkitpro/devkitppc/bin/../lib/gcc/powerpc-eabi/10.2.0/../../../../powerpc-eabi/lib\libsysbase.a(handle_manager.o)
 .data.__stdin_handle
                0x0000000000812098        0xc c:/msys64/opt/devkitpro/devkitppc/bin/../lib/gcc/powerpc-eabi/10.2.0/../../../../powerpc-eabi/lib\libsysbase.a(handle_manager.o)
 .data.__stdout_handle
                0x00000000008120a4        0xc c:/msys64/opt/devkitpro/devkitppc/bin/../lib/gcc/powerpc-eabi/10.2.0/../../../../powerpc-eabi/lib\libsysbase.a(handle_manager.o)
 .data.handles  0x00000000008120b0     0x1000 c:/msys64/opt/devkitpro/devkitppc/bin/../lib/gcc/powerpc-eabi/10.2.0/../../../../powerpc-eabi/lib\libsysbase.a(handle_manager.o)
 .data.devoptab_list
                0x00000000008130b0       0x40 c:/msys64/opt/devkitpro/devkitppc/bin/../lib/gcc/powerpc-eabi/10.2.0/../../../../powerpc-eabi/lib\libsysbase.a(iosupport.o)
                0x00000000008130b0                devoptab_list
                0x00000000008130f0                __sdata_start = .
 *(.sdata*)
 .sdata         0x00000000008130f0        0x0 entry.o
                0x000000000081b0f0                _SDA_BASE_
 .sdata2        0x00000000008130f0        0x0 entry.o
                0x000000000081b0f0                _SDA2_BASE_
 .sdata._END    0x00000000008130f0        0x4 debugger.o
                0x00000000008130f0                _END
 .sdata._GREEN  0x00000000008130f4        0x4 debugger.o
                0x00000000008130f4                _GREEN
 .sdata.__debug_udp_socket
                0x00000000008130f8        0x4 debugger.o
                0x00000000008130f8                __debug_udp_socket
 .sdata.memoryAlloc
                0x00000000008130fc        0x4 symbols.o
                0x00000000008130fc                memoryAlloc
 .sdata.memoryFree
                0x0000000000813100        0x4 symbols.o
                0x0000000000813100                memoryFree
 .sdata         0x0000000000813104        0x8 c:/msys64/opt/devkitpro/devkitppc/bin/../lib/gcc/powerpc-eabi/10.2.0/../../../../powerpc-eabi/lib\libc.a(lib_a-impure.o)
                0x0000000000813104                _global_impure_ptr
                0x0000000000813108                _impure_ptr
 .sdata.__malloc_sbrk_base
                0x000000000081310c        0x4 c:/msys64/opt/devkitpro/devkitppc/bin/../lib/gcc/powerpc-eabi/10.2.0/../../../../powerpc-eabi/lib\libc.a(lib_a-mallocr.o)
                0x000000000081310c                __malloc_sbrk_base
 .sdata.__malloc_trim_threshold
                0x0000000000813110        0x4 c:/msys64/opt/devkitpro/devkitppc/bin/../lib/gcc/powerpc-eabi/10.2.0/../../../../powerpc-eabi/lib\libc.a(lib_a-mallocr.o)
                0x0000000000813110                __malloc_trim_threshold
                0x0000000000813114                __sdata_end = .
                0x0000000000813114                __sdata2_start = .
 *(.sdata2*)
                0x0000000000813114                __sdata2_end = .

.bss            0x0000000000813114      0x168
                0x0000000000813114                __bss_start = .
 *(.bss*)
 .bss.__debug_logger_mutex
                0x0000000000813114       0x2c debugger.o
                0x0000000000813114                __debug_logger_mutex
 .bss.__debug_sock_addr
                0x0000000000813140       0x10 debugger.o
                0x0000000000813140                __debug_sock_addr
 .bss.__malloc_current_mallinfo
                0x0000000000813150       0x28 c:/msys64/opt/devkitpro/devkitppc/bin/../lib/gcc/powerpc-eabi/10.2.0/../../../../powerpc-eabi/lib\libc.a(lib_a-mallocr.o)
                0x0000000000813150                __malloc_current_mallinfo
 .bss.__sfp_recursive_mutex
                0x0000000000813178        0x4 c:/msys64/opt/devkitpro/devkitppc/bin/../lib/gcc/powerpc-eabi/10.2.0/../../../../powerpc-eabi/lib\libc.a(lib_a-findfp.o)
 .bss.__sinit_recursive_mutex
                0x000000000081317c        0x4 c:/msys64/opt/devkitpro/devkitppc/bin/../lib/gcc/powerpc-eabi/10.2.0/../../../../powerpc-eabi/lib\libc.a(lib_a-findfp.o)
 .bss.__hndl_lock
                0x0000000000813180        0x4 c:/msys64/opt/devkitpro/devkitppc/bin/../lib/gcc/powerpc-eabi/10.2.0/../../../../powerpc-eabi/lib\libsysbase.a(handle_manager.o)
 *(.sbss*)
 .sbss.DCFlushRange
                0x0000000000813184        0x4 symbols.o
                0x0000000000813184                DCFlushRange
 .sbss.DCInvalidateRange
                0x0000000000813188        0x4 symbols.o
                0x0000000000813188                DCInvalidateRange
 .sbss.DCStoreRange
                0x000000000081318c        0x4 symbols.o
                0x000000000081318c                DCStoreRange
 .sbss.FSAddClient
                0x0000000000813190        0x4 symbols.o
                0x0000000000813190                FSAddClient
 .sbss.FSCloseDir
                0x0000000000813194        0x4 symbols.o
                0x0000000000813194                FSCloseDir
 .sbss.FSCloseFile
                0x0000000000813198        0x4 symbols.o
                0x0000000000813198                FSCloseFile
 .sbss.FSGetMountSource
                0x000000000081319c        0x4 symbols.o
                0x000000000081319c                FSGetMountSource
 .sbss.FSGetPosFile
                0x00000000008131a0        0x4 symbols.o
                0x00000000008131a0                FSGetPosFile
 .sbss.FSGetStat
                0x00000000008131a4        0x4 symbols.o
                0x00000000008131a4                FSGetStat
 .sbss.FSGetStatFile
                0x00000000008131a8        0x4 symbols.o
                0x00000000008131a8                FSGetStatFile
 .sbss.FSInit   0x00000000008131ac        0x4 symbols.o
                0x00000000008131ac                FSInit
 .sbss.FSInitCmdBlock
                0x00000000008131b0        0x4 symbols.o
                0x00000000008131b0                FSInitCmdBlock
 .sbss.FSMount  0x00000000008131b4        0x4 symbols.o
                0x00000000008131b4                FSMount
 .sbss.FSOpenDir
                0x00000000008131b8        0x4 symbols.o
                0x00000000008131b8                FSOpenDir
 .sbss.FSOpenFile
                0x00000000008131bc        0x4 symbols.o
                0x00000000008131bc                FSOpenFile
 .sbss.FSReadDir
                0x00000000008131c0        0x4 symbols.o
                0x00000000008131c0                FSReadDir
 .sbss.FSReadFile
                0x00000000008131c4        0x4 symbols.o
                0x00000000008131c4                FSReadFile
 .sbss.FSReadFileWithPos
                0x00000000008131c8        0x4 symbols.o
                0x00000000008131c8                FSReadFileWithPos
 .sbss.FSSetPosFile
                0x00000000008131cc        0x4 symbols.o
                0x00000000008131cc                FSSetPosFile
 .sbss.FSWriteFile
                0x00000000008131d0        0x4 symbols.o
                0x00000000008131d0                FSWriteFile
 .sbss.GX2WaitForVsync
                0x00000000008131d4        0x4 symbols.o
                0x00000000008131d4                GX2WaitForVsync
 .sbss.ICInvalidateRange
                0x00000000008131d8        0x4 symbols.o
                0x00000000008131d8                ICInvalidateRange
 .sbss.IOS_Close
                0x00000000008131dc        0x4 symbols.o
                0x00000000008131dc                IOS_Close
 .sbss.IOS_Ioctl
                0x00000000008131e0        0x4 symbols.o
                0x00000000008131e0                IOS_Ioctl
 .sbss.IOS_Open
                0x00000000008131e4        0x4 symbols.o
                0x00000000008131e4                IOS_Open
 .sbss.OSCreateThread
                0x00000000008131e8        0x4 symbols.o
                0x00000000008131e8                OSCreateThread
 .sbss.OSDynLoad_Acquire
                0x00000000008131ec        0x4 symbols.o
                0x00000000008131ec                OSDynLoad_Acquire
 .sbss.OSDynLoad_FindExport
                0x00000000008131f0        0x4 symbols.o
                0x00000000008131f0                OSDynLoad_FindExport
 .sbss.OSEffectiveToPhysical
                0x00000000008131f4        0x4 symbols.o
                0x00000000008131f4                OSEffectiveToPhysical
 .sbss.OSExitThread
                0x00000000008131f8        0x4 symbols.o
                0x00000000008131f8                OSExitThread
 .sbss.OSGetCoreId
                0x00000000008131fc        0x4 symbols.o
                0x00000000008131fc                OSGetCoreId
 .sbss.OSGetCurrentThread
                0x0000000000813200        0x4 symbols.o
                0x0000000000813200                OSGetCurrentThread
 .sbss.OSGetSymbolName
                0x0000000000813204        0x4 symbols.o
                0x0000000000813204                OSGetSymbolName
 .sbss.OSGetTitleID
                0x0000000000813208        0x4 symbols.o
                0x0000000000813208                OSGetTitleID
 .sbss.OSGetUPID
                0x000000000081320c        0x4 symbols.o
                0x000000000081320c                OSGetUPID
 .sbss.OSInitMutexEx
                0x0000000000813210        0x4 symbols.o
                0x0000000000813210                OSInitMutexEx
 .sbss.OSIsAddressValid
                0x0000000000813214        0x4 symbols.o
                0x0000000000813214                OSIsAddressValid
 .sbss.OSJoinThread
                0x0000000000813218        0x4 symbols.o
                0x0000000000813218                OSJoinThread
 .sbss.OSLockMutex
                0x000000000081321c        0x4 symbols.o
                0x000000000081321c                OSLockMutex
 .sbss.OSMemoryBarrier
                0x0000000000813220        0x4 symbols.o
                0x0000000000813220                OSMemoryBarrier
 .sbss.OSResumeThread
                0x0000000000813224        0x4 symbols.o
                0x0000000000813224                OSResumeThread
 .sbss.OSSetExceptionCallbackEx
                0x0000000000813228        0x4 symbols.o
                0x0000000000813228                OSSetExceptionCallbackEx
 .sbss.OSSetThreadName
                0x000000000081322c        0x4 symbols.o
                0x000000000081322c                OSSetThreadName
 .sbss.OSSleepTicks
                0x0000000000813230        0x4 symbols.o
                0x0000000000813230                OSSleepTicks
 .sbss.OSUnlockMutex
                0x0000000000813234        0x4 symbols.o
                0x0000000000813234                OSUnlockMutex
 .sbss.ProcUIProcessMessages
                0x0000000000813238        0x4 symbols.o
                0x0000000000813238                ProcUIProcessMessages
 .sbss.SAVEOpenFile
                0x000000000081323c        0x4 symbols.o
                0x000000000081323c                SAVEOpenFile
 .sbss.SYSCheckTitleExists
                0x0000000000813240        0x4 symbols.o
                0x0000000000813240                SYSCheckTitleExists
 .sbss.SYSLaunchMenu
                0x0000000000813244        0x4 symbols.o
                0x0000000000813244                SYSLaunchMenu
 .sbss.SYSLaunchTitle
                0x0000000000813248        0x4 symbols.o
                0x0000000000813248                SYSLaunchTitle
 .sbss.VPADRead
                0x000000000081324c        0x4 symbols.o
                0x000000000081324c                VPADRead
 .sbss.__OSPhysicalToEffectiveCached
                0x0000000000813250        0x4 symbols.o
                0x0000000000813250                __OSPhysicalToEffectiveCached
 .sbss.connect  0x0000000000813254        0x4 symbols.o
                0x0000000000813254                connect
 .sbss.sendto   0x0000000000813258        0x4 symbols.o
                0x0000000000813258                sendto
 .sbss.setsockopt
                0x000000000081325c        0x4 symbols.o
                0x000000000081325c                setsockopt
 .sbss.socket   0x0000000000813260        0x4 symbols.o
                0x0000000000813260                socket
 .sbss.socket_lib_finish
                0x0000000000813264        0x4 symbols.o
                0x0000000000813264                socket_lib_finish
 .sbss.socket_lib_init
                0x0000000000813268        0x4 symbols.o
                0x0000000000813268                socket_lib_init
 .sbss.socketclose
                0x000000000081326c        0x4 symbols.o
                0x000000000081326c                socketclose
 .sbss.__malloc_max_sbrked_mem
                0x0000000000813270        0x4 c:/msys64/opt/devkitpro/devkitppc/bin/../lib/gcc/powerpc-eabi/10.2.0/../../../../powerpc-eabi/lib\libc.a(lib_a-mallocr.o)
                0x0000000000813270                __malloc_max_sbrked_mem
 .sbss.__malloc_max_total_mem
                0x0000000000813274        0x4 c:/msys64/opt/devkitpro/devkitppc/bin/../lib/gcc/powerpc-eabi/10.2.0/../../../../powerpc-eabi/lib\libc.a(lib_a-mallocr.o)
                0x0000000000813274                __malloc_max_total_mem
 .sbss.__malloc_top_pad
                0x0000000000813278        0x4 c:/msys64/opt/devkitpro/devkitppc/bin/../lib/gcc/powerpc-eabi/10.2.0/../../../../powerpc-eabi/lib\libc.a(lib_a-mallocr.o)
                0x0000000000813278                __malloc_top_pad
 *(COMMON)
                0x000000000081327c                __bss_end = .
                0x000000000081327c                __CODE_END = .

/DISCARD/
 *(*)
OUTPUT(../no_ssl_patch_dbg.elf elf32-powerpc)
